Archive member included because of file (symbol)

C:/Program Files (x86)/Microchip/MPLAB C32/bin/../lib/gcc/pic32mx/3.4.4\libgcc.a(_udivdi3.o)
                              build/default/production/_ext/1295770447/TCPPerformanceTest.o (__udivdi3)
C:/Program Files (x86)/Microchip/MPLAB C32/bin/../lib/gcc/pic32mx/3.4.4/../../../../pic32mx/lib\libc.a(memcmp.o)
                              build/default/production/_ext/1295770447/HTTP2.o (memcmp)
C:/Program Files (x86)/Microchip/MPLAB C32/bin/../lib/gcc/pic32mx/3.4.4/../../../../pic32mx/lib\libc.a(memcpy.o)
                              build/default/production/_ext/1472/UARTConfig.o (memcpy)
C:/Program Files (x86)/Microchip/MPLAB C32/bin/../lib/gcc/pic32mx/3.4.4/../../../../pic32mx/lib\libc.a(memset.o)
                              build/default/production/_ext/1295770447/DHCP.o (memset)
C:/Program Files (x86)/Microchip/MPLAB C32/bin/../lib/gcc/pic32mx/3.4.4/../../../../pic32mx/lib\libc.a(strcmp.o)
                              build/default/production/_ext/1295770447/HTTP2.o (strcmp)
C:/Program Files (x86)/Microchip/MPLAB C32/bin/../lib/gcc/pic32mx/3.4.4/../../../../pic32mx/lib\libc.a(strcpy.o)
                              build/default/production/_ext/1295770447/HTTP2.o (strcpy)
C:/Program Files (x86)/Microchip/MPLAB C32/bin/../lib/gcc/pic32mx/3.4.4/../../../../pic32mx/lib\libc.a(strlen.o)
                              build/default/production/_ext/1295770447/HTTP2.o (strlen)
C:/Program Files (x86)/Microchip/MPLAB C32/bin/../lib/gcc/pic32mx/3.4.4/../../../../pic32mx/lib\libc.a(general-exception.o)
                              C:/Program Files (x86)/Microchip/MPLAB C32/bin/../lib/gcc/pic32mx/3.4.4/../../../../pic32mx/lib/crt0.o (_general_exception_context)
C:/Program Files (x86)/Microchip/MPLAB C32/bin/../lib/gcc/pic32mx/3.4.4/../../../../pic32mx/lib\libc.a(strncmp.o)
                              build/default/production/_ext/1496989791/ZGCommon.o (strncmp)
C:/Program Files (x86)/Microchip/MPLAB C32/bin/../lib/gcc/pic32mx/3.4.4/../../../../pic32mx/lib\libc.a(exit.o)
                              C:/Program Files (x86)/Microchip/MPLAB C32/bin/../lib/gcc/pic32mx/3.4.4/../../../../pic32mx/lib/crt0.o (exit)
C:/Program Files (x86)/Microchip/MPLAB C32/bin/../lib/gcc/pic32mx/3.4.4/../../../../pic32mx/lib\libc.a(rand.o)
                              build/default/production/_ext/1295770447/Helpers.o (rand)
C:/Program Files (x86)/Microchip/MPLAB C32/bin/../lib/gcc/pic32mx/3.4.4/../../../../pic32mx/lib\libc.a(atol.o)
                              build/default/production/_ext/1295770447/HTTP2.o (atol)
C:/Program Files (x86)/Microchip/MPLAB C32/bin/../lib/gcc/pic32mx/3.4.4/../../../../pic32mx/lib\libc.a(atoi.o)
                              build/default/production/_ext/1472/UARTConfig.o (atoi)
C:/Program Files (x86)/Microchip/MPLAB C32/bin/../lib/gcc/pic32mx/3.4.4/../../../../pic32mx/lib\libc.a(strtol.o)
                              C:/Program Files (x86)/Microchip/MPLAB C32/bin/../lib/gcc/pic32mx/3.4.4/../../../../pic32mx/lib\libc.a(atol.o) (strtol)
C:/Program Files (x86)/Microchip/MPLAB C32/bin/../lib/gcc/pic32mx/3.4.4/../../../../pic32mx/lib\libc.a(stubs.o)
                              C:/Program Files (x86)/Microchip/MPLAB C32/bin/../lib/gcc/pic32mx/3.4.4/../../../../pic32mx/lib\libc.a(rand.o) (_libc_private_storage)
C:/Program Files (x86)/Microchip/MPLAB C32/bin/../lib/gcc/pic32mx/3.4.4/../../../../pic32mx/lib\libc.a(default-bootstrap-exception-handler.o)
                              C:/Program Files (x86)/Microchip/MPLAB C32/bin/../lib/gcc/pic32mx/3.4.4/../../../../pic32mx/lib/crt0.o (_bootstrap_exception_handler)
C:/Program Files (x86)/Microchip/MPLAB C32/bin/../lib/gcc/pic32mx/3.4.4/../../../../pic32mx/lib\libc.a(default-on-reset.o)
                              C:/Program Files (x86)/Microchip/MPLAB C32/bin/../lib/gcc/pic32mx/3.4.4/../../../../pic32mx/lib/crt0.o (_on_reset)
C:/Program Files (x86)/Microchip/MPLAB C32/bin/../lib/gcc/pic32mx/3.4.4/../../../../pic32mx/lib\libc.a(default-on-bootstrap.o)
                              C:/Program Files (x86)/Microchip/MPLAB C32/bin/../lib/gcc/pic32mx/3.4.4/../../../../pic32mx/lib/crt0.o (_on_bootstrap)
C:/Program Files (x86)/Microchip/MPLAB C32/bin/../lib/gcc/pic32mx/3.4.4/../../../../pic32mx/lib\libc.a(default-nmi-handler.o)
                              C:/Program Files (x86)/Microchip/MPLAB C32/bin/../lib/gcc/pic32mx/3.4.4/../../../../pic32mx/lib/crt0.o (_nmi_handler)
C:/Program Files (x86)/Microchip/MPLAB C32/bin/../lib/gcc/pic32mx/3.4.4/../../../../pic32mx/lib\libc.a(_exit.o)
                              C:/Program Files (x86)/Microchip/MPLAB C32/bin/../lib/gcc/pic32mx/3.4.4/../../../../pic32mx/lib\libc.a(exit.o) (_exit)
C:/Program Files (x86)/Microchip/MPLAB C32/bin/../lib/gcc/pic32mx/3.4.4/../../../../pic32mx/lib\libc.a(ctype.o)
                              C:/Program Files (x86)/Microchip/MPLAB C32/bin/../lib/gcc/pic32mx/3.4.4/../../../../pic32mx/lib\libc.a(strtol.o) (_ctype)
C:/Program Files (x86)/Microchip/MPLAB C32/bin/../lib/gcc/pic32mx/3.4.4/../../../../pic32mx/lib\libc.a(errno.o)
                              C:/Program Files (x86)/Microchip/MPLAB C32/bin/../lib/gcc/pic32mx/3.4.4/../../../../pic32mx/lib\libc.a(strtol.o) (errno)
C:/Program Files (x86)/Microchip/MPLAB C32/bin/../lib/gcc/pic32mx/3.4.4/../../../../pic32mx/lib\libmchp_peripheral_32MX460F512L.a(soft_reset_lib.o)
                              build/default/production/_ext/1295770447/Reboot.o (SoftReset)
C:/Program Files (x86)/Microchip/MPLAB C32/bin/../lib/gcc/pic32mx/3.4.4/../../../../pic32mx/lib\libmchp_peripheral_32MX460F512L.a(pcache.o)
                              build/default/production/_ext/1472/MainDemo.o (CheKseg0CacheOn)
C:/Program Files (x86)/Microchip/MPLAB C32/bin/../lib/gcc/pic32mx/3.4.4/../../../../pic32mx/lib\libmchp_peripheral_32MX460F512L.a(int_disable_interrupts_lib.o)
                              build/default/production/_ext/1472/MainDemo.o (INTDisableInterrupts)
C:/Program Files (x86)/Microchip/MPLAB C32/bin/../lib/gcc/pic32mx/3.4.4/../../../../pic32mx/lib\libmchp_peripheral_32MX460F512L.a(int_restore_interrupts_lib.o)
                              build/default/production/_ext/1472/MainDemo.o (INTRestoreInterrupts)
C:/Program Files (x86)/Microchip/MPLAB C32/bin/../lib/gcc/pic32mx/3.4.4/../../../../pic32mx/lib\libmchp_peripheral_32MX460F512L.a(int_enable_mv_int_lib.o)
                              build/default/production/_ext/1472/MainDemo.o (INTEnableSystemMultiVectoredInt)
C:/Program Files (x86)/Microchip/MPLAB C32/bin/../lib/gcc/pic32mx/3.4.4/../../../../pic32mx/lib\libmchp_peripheral_32MX460F512L.a(puts_uartx_lib_legacy.o)
                              build/default/production/_ext/1472/UARTConfig.o (putsUART2)
C:/Program Files (x86)/Microchip/MPLAB C32/bin/../lib/gcc/pic32mx/3.4.4/../../../../pic32mx/lib\libmchp_peripheral_32MX460F512L.a(int_enable_interrupts_lib.o)
                              C:/Program Files (x86)/Microchip/MPLAB C32/bin/../lib/gcc/pic32mx/3.4.4/../../../../pic32mx/lib\libmchp_peripheral_32MX460F512L.a(int_enable_mv_int_lib.o) (INTEnableInterrupts)

Allocating common symbols
Common symbol       size              file

g_Rts               0x2               build/default/production/_ext/1496989791/ZGLibCfg.o
UDPTxCount          0x2               build/default/production/_ext/1295770447/UDP.o
LCDText             0x21              build/default/production/_ext/1295770447/LCDBlocking.o
curHTTP             0x8c              build/default/production/_ext/1295770447/HTTP2.o
g_pwrMgmtEnabled    0x1               build/default/production/_ext/1496989791/ZGLibCfg.o
g_txRate            0x1               build/default/production/_ext/1496989791/ZGLibCfg.o
activeUDPSocket     0x1               build/default/production/_ext/1295770447/UDP.o
curHTTPID           0x1               build/default/production/_ext/1295770447/HTTP2.o
remoteNode          0xa               build/default/production/_ext/1295770447/StackTsk.o
gRxIndexSetBeyondBuffer
                    0x1               build/default/production/_ext/1496989791/ZG2100.o
gblDriverContext    0x1a              build/default/production/_ext/1496989791/ZGDriverMac.o
lastBlock           0x40              build/default/production/_ext/1295770447/Hashes.o
AppConfig           0x53              build/default/production/_ext/1472/MainDemo.o
zgBufferRAWState    0x2               build/default/production/_ext/1496989791/ZG2100.o
UDPRxCount          0x2               build/default/production/_ext/1295770447/UDP.o
g_RfEnabled         0x1               build/default/production/_ext/1496989791/ZGLibCfg.o
g_linkMgrCtx        0x6c              build/default/production/_ext/1496989791/ZGLinkMgrII.o
UDPSocketInfo       0x7e              build/default/production/_ext/1295770447/UDP.o
httpStubs           0x10              build/default/production/_ext/1295770447/HTTP2.o
AN0String           0x8               build/default/production/_ext/1472/MainDemo.o

Microchip PIC32 Memory-Usage Report

kseg0 Program-Memory Usage
section                    address  length [bytes]      (dec)  Description
-------                 ----------  -------------------------  -----------
.text                   0x9d000000        0x24a54      150100  Application's executable code 
.rodata                 0x9d024a54         0x98c0       39104  Read-only constant data 
.eh_frame               0x9d02e314           0x20          32  Stack unwind info 
.data                   0x9d02e334           0xe4         228  Data-initialization template 
.sdata                  0x9d02e418           0x2c          44  Small data-initialization template 
      Total kseg0_program_mem used  :     0x2e444      189508  36.1% of 0x80000

kseg0 Boot-Memory Usage
section                    address  length [bytes]      (dec)  Description
-------                 ----------  -------------------------  -----------
.startup                0x9fc00490          0x1e0         480  C startup code 
         Total kseg0_boot_mem used  :       0x1e0         480  19.9% of 0x970

Exception-Memory Usage 
section                    address  length [bytes]      (dec)  Description
-------                 ----------  -------------------------  -----------
.app_excpt              0x9fc01180           0x10          16  General-Exception handler 
.vector_4               0x9fc01280            0x8           8  Interrupt Vector 4 
.vector_8               0x9fc01300            0x8           8  Interrupt Vector 8 
          Total exception_mem used  :        0x20          32  0.8% of 0x1000

kseg1 Boot-Memory Usage
section                    address  length [bytes]      (dec)  Description
-------                 ----------  -------------------------  -----------
.reset                  0xbfc00000           0x10          16  Reset handler 
.bev_excpt              0xbfc00380           0x10          16  BEV-Exception handler 
         Total kseg1_boot_mem used  :        0x20          32  2.7% of 0x490
        --------------------------------------------------------------------------
         Total Program Memory used  :     0x2e664      190052  35.7% of 0x81e00
        --------------------------------------------------------------------------


kseg1 Data-Memory Usage
section                    address  length [bytes]      (dec)  Description
-------                 ----------  -------------------------  -----------
.data                   0xa0000000           0xe4         228  Initialized data 
.sdata                  0xa00000e4           0x2c          44  Small initialized data 
.sbss                   0xa0000110          0x128         296  Small uninitialized data 
.bss                    0xa0000238          0x558        1368  Uninitialized data 
.stack                  0xa0000790          0x400        1024  Minimum space reserved for stack 
         Total kseg1_data_mem used  :       0xb90        2960  9.0% of 0x8000
        --------------------------------------------------------------------------
            Total Data Memory used  :       0xb90        2960  9.0% of 0x8000
        --------------------------------------------------------------------------

Discarded input sections

 .reginfo       0x00000000       0x18 C:/Program Files (x86)/Microchip/MPLAB C32/bin/../lib/gcc/pic32mx/3.4.4/../../../../pic32mx/lib/crt0.o
 .pdr           0x00000000       0xa0 C:/Program Files (x86)/Microchip/MPLAB C32/bin/../lib/gcc/pic32mx/3.4.4/../../../../pic32mx/lib/crt0.o
 .reginfo       0x00000000       0x18 build/default/production/_ext/1472/UARTConfig.o
 .pdr           0x00000000       0x20 build/default/production/_ext/1472/UARTConfig.o
 .reginfo       0x00000000       0x18 build/default/production/_ext/1472/GenericTCPClient.o
 .pdr           0x00000000       0x20 build/default/production/_ext/1472/GenericTCPClient.o
 .reginfo       0x00000000       0x18 build/default/production/_ext/1472/GenericTCPServer.o
 .pdr           0x00000000       0x20 build/default/production/_ext/1472/GenericTCPServer.o
 .reginfo       0x00000000       0x18 build/default/production/_ext/1472/LegacyHTTPApp.o
 .pdr           0x00000000        0x0 build/default/production/_ext/1472/LegacyHTTPApp.o
 .reginfo       0x00000000       0x18 build/default/production/_ext/1472/PingDemo.o
 .pdr           0x00000000        0x0 build/default/production/_ext/1472/PingDemo.o
 .reginfo       0x00000000       0x18 build/default/production/_ext/1472/SMTPDemo.o
 .pdr           0x00000000        0x0 build/default/production/_ext/1472/SMTPDemo.o
 .reginfo       0x00000000       0x18 build/default/production/_ext/1472/BerkeleyUDPClientDemo.o
 .pdr           0x00000000        0x0 build/default/production/_ext/1472/BerkeleyUDPClientDemo.o
 .reginfo       0x00000000       0x18 build/default/production/_ext/1472/BerkeleyTCPClientDemo.o
 .pdr           0x00000000        0x0 build/default/production/_ext/1472/BerkeleyTCPClientDemo.o
 .reginfo       0x00000000       0x18 build/default/production/_ext/1472/BerkeleyTCPServerDemo.o
 .pdr           0x00000000        0x0 build/default/production/_ext/1472/BerkeleyTCPServerDemo.o
 .reginfo       0x00000000       0x18 build/default/production/_ext/1295770447/UDPPerformanceTest.o
 .pdr           0x00000000        0x0 build/default/production/_ext/1295770447/UDPPerformanceTest.o
 .reginfo       0x00000000       0x18 build/default/production/_ext/1295770447/Announce.o
 .pdr           0x00000000       0x40 build/default/production/_ext/1295770447/Announce.o
 .reginfo       0x00000000       0x18 build/default/production/_ext/1295770447/ARP.o
 .pdr           0x00000000       0xc0 build/default/production/_ext/1295770447/ARP.o
 .reginfo       0x00000000       0x18 build/default/production/_ext/1295770447/Delay.o
 .pdr           0x00000000       0x40 build/default/production/_ext/1295770447/Delay.o
 .reginfo       0x00000000       0x18 build/default/production/_ext/1295770447/DHCP.o
 .pdr           0x00000000      0x140 build/default/production/_ext/1295770447/DHCP.o
 .reginfo       0x00000000       0x18 build/default/production/_ext/1295770447/DHCPs.o
 .pdr           0x00000000       0x60 build/default/production/_ext/1295770447/DHCPs.o
 .reginfo       0x00000000       0x18 build/default/production/_ext/1295770447/DNS.o
 .pdr           0x00000000       0xc0 build/default/production/_ext/1295770447/DNS.o
 .reginfo       0x00000000       0x18 build/default/production/_ext/1295770447/DynDNS.o
 .pdr           0x00000000        0x0 build/default/production/_ext/1295770447/DynDNS.o
 .reginfo       0x00000000       0x18 build/default/production/_ext/1295770447/FTP.o
 .pdr           0x00000000        0x0 build/default/production/_ext/1295770447/FTP.o
 .reginfo       0x00000000       0x18 build/default/production/_ext/1295770447/Hashes.o
 .pdr           0x00000000       0xa0 build/default/production/_ext/1295770447/Hashes.o
 .reginfo       0x00000000       0x18 build/default/production/_ext/1295770447/Helpers.o
 .pdr           0x00000000      0x200 build/default/production/_ext/1295770447/Helpers.o
 .reginfo       0x00000000       0x18 build/default/production/_ext/1295770447/HTTP2.o
 .pdr           0x00000000      0x220 build/default/production/_ext/1295770447/HTTP2.o
 .reginfo       0x00000000       0x18 build/default/production/_ext/1295770447/HTTP.o
 .pdr           0x00000000        0x0 build/default/production/_ext/1295770447/HTTP.o
 .reginfo       0x00000000       0x18 build/default/production/_ext/1295770447/ICMP.o
 .pdr           0x00000000       0x20 build/default/production/_ext/1295770447/ICMP.o
 .reginfo       0x00000000       0x18 build/default/production/_ext/1295770447/IP.o
 .pdr           0x00000000       0x80 build/default/production/_ext/1295770447/IP.o
 .reginfo       0x00000000       0x18 build/default/production/_ext/1295770447/LCDBlocking.o
 .pdr           0x00000000       0x80 build/default/production/_ext/1295770447/LCDBlocking.o
 .reginfo       0x00000000       0x18 build/default/production/_ext/1295770447/MPFS2.o
 .pdr           0x00000000      0x280 build/default/production/_ext/1295770447/MPFS2.o
 .reginfo       0x00000000       0x18 build/default/production/_ext/1295770447/MPFS.o
 .pdr           0x00000000        0x0 build/default/production/_ext/1295770447/MPFS.o
 .reginfo       0x00000000       0x18 build/default/production/_ext/1295770447/NBNS.o
 .pdr           0x00000000       0x60 build/default/production/_ext/1295770447/NBNS.o
 .reginfo       0x00000000       0x18 build/default/production/_ext/1295770447/Reboot.o
 .pdr           0x00000000       0x20 build/default/production/_ext/1295770447/Reboot.o
 .reginfo       0x00000000       0x18 build/default/production/_ext/1295770447/SMTP.o
 .pdr           0x00000000        0x0 build/default/production/_ext/1295770447/SMTP.o
 .reginfo       0x00000000       0x18 build/default/production/_ext/1295770447/SNMP.o
 .pdr           0x00000000        0x0 build/default/production/_ext/1295770447/SNMP.o
 .reginfo       0x00000000       0x18 build/default/production/_ext/1295770447/SNTP.o
 .pdr           0x00000000        0x0 build/default/production/_ext/1295770447/SNTP.o
 .reginfo       0x00000000       0x18 build/default/production/_ext/1295770447/StackTsk.o
 .pdr           0x00000000       0x60 build/default/production/_ext/1295770447/StackTsk.o
 .reginfo       0x00000000       0x18 build/default/production/_ext/1295770447/TCP.o
 .pdr           0x00000000      0x420 build/default/production/_ext/1295770447/TCP.o
 .reginfo       0x00000000       0x18 build/default/production/_ext/1295770447/TCPPerformanceTest.o
 .pdr           0x00000000       0x60 build/default/production/_ext/1295770447/TCPPerformanceTest.o
 .reginfo       0x00000000       0x18 build/default/production/_ext/1295770447/Telnet.o
 .pdr           0x00000000       0x20 build/default/production/_ext/1295770447/Telnet.o
 .reginfo       0x00000000       0x18 build/default/production/_ext/1295770447/TFTPc.o
 .pdr           0x00000000        0x0 build/default/production/_ext/1295770447/TFTPc.o
 .reginfo       0x00000000       0x18 build/default/production/_ext/1295770447/Tick.o
 .pdr           0x00000000      0x100 build/default/production/_ext/1295770447/Tick.o
 .reginfo       0x00000000       0x18 build/default/production/_ext/1295770447/UART2TCPBridge.o
 .pdr           0x00000000        0x0 build/default/production/_ext/1295770447/UART2TCPBridge.o
 .reginfo       0x00000000       0x18 build/default/production/_ext/1295770447/UART.o
 .pdr           0x00000000       0x20 build/default/production/_ext/1295770447/UART.o
 .reginfo       0x00000000       0x18 build/default/production/_ext/1295770447/UDP.o
 .pdr           0x00000000      0x220 build/default/production/_ext/1295770447/UDP.o
 .reginfo       0x00000000       0x18 build/default/production/_ext/1295770447/BerkeleyAPI.o
 .pdr           0x00000000        0x0 build/default/production/_ext/1295770447/BerkeleyAPI.o
 .reginfo       0x00000000       0x18 build/default/production/_ext/1472/MPFSImg2.o
 .pdr           0x00000000        0x0 build/default/production/_ext/1472/MPFSImg2.o
 .reginfo       0x00000000       0x18 build/default/production/_ext/1295770447/SSL.o
 .pdr           0x00000000        0x0 build/default/production/_ext/1295770447/SSL.o
 .reginfo       0x00000000       0x18 build/default/production/_ext/1295770447/ARCFOUR.o
 .pdr           0x00000000        0x0 build/default/production/_ext/1295770447/ARCFOUR.o
 .reginfo       0x00000000       0x18 build/default/production/_ext/1295770447/BigInt.o
 .pdr           0x00000000        0x0 build/default/production/_ext/1295770447/BigInt.o
 .reginfo       0x00000000       0x18 build/default/production/_ext/1295770447/BigInt_helper_C32.o
 .pdr           0x00000000        0x0 build/default/production/_ext/1295770447/BigInt_helper_C32.o
 .reginfo       0x00000000       0x18 build/default/production/_ext/1295770447/Random.o
 .pdr           0x00000000        0x0 build/default/production/_ext/1295770447/Random.o
 .reginfo       0x00000000       0x18 build/default/production/_ext/1295770447/RSA.o
 .pdr           0x00000000        0x0 build/default/production/_ext/1295770447/RSA.o
 .reginfo       0x00000000       0x18 build/default/production/_ext/1295770447/AutoIP.o
 .pdr           0x00000000      0x140 build/default/production/_ext/1295770447/AutoIP.o
 .reginfo       0x00000000       0x18 build/default/production/_ext/1496989791/ZGDriverRaw.o
 .pdr           0x00000000      0x120 build/default/production/_ext/1496989791/ZGDriverRaw.o
 .reginfo       0x00000000       0x18 build/default/production/_ext/1496989791/ZGAccessApp.o
 .pdr           0x00000000        0x0 build/default/production/_ext/1496989791/ZGAccessApp.o
 .reginfo       0x00000000       0x18 build/default/production/_ext/1496989791/ZGAccessSys.o
 .pdr           0x00000000       0x20 build/default/production/_ext/1496989791/ZGAccessSys.o
 .reginfo       0x00000000       0x18 build/default/production/_ext/1496989791/ZGEint.o
 .pdr           0x00000000       0xe0 build/default/production/_ext/1496989791/ZGEint.o
 .reginfo       0x00000000       0x18 build/default/production/_ext/1496989791/ZGHWReset.o
 .pdr           0x00000000       0x20 build/default/production/_ext/1496989791/ZGHWReset.o
 .reginfo       0x00000000       0x18 build/default/production/_ext/1496989791/ZGSpi.o
 .pdr           0x00000000      0x1e0 build/default/production/_ext/1496989791/ZGSpi.o
 .reginfo       0x00000000       0x18 build/default/production/_ext/1496989791/ZG2100.o
 .pdr           0x00000000      0x420 build/default/production/_ext/1496989791/ZG2100.o
 .reginfo       0x00000000       0x18 build/default/production/_ext/1496989791/ZGDriverCom.o
 .pdr           0x00000000      0x2a0 build/default/production/_ext/1496989791/ZGDriverCom.o
 .reginfo       0x00000000       0x18 build/default/production/_ext/1496989791/ZGDriverIFace.o
 .pdr           0x00000000      0x220 build/default/production/_ext/1496989791/ZGDriverIFace.o
 .reginfo       0x00000000       0x18 build/default/production/_ext/1496989791/ZGDriverMac.o
 .pdr           0x00000000      0x100 build/default/production/_ext/1496989791/ZGDriverMac.o
 .reginfo       0x00000000       0x18 build/default/production/_ext/1496989791/ZGWifiMgrII.o
 .pdr           0x00000000      0x1c0 build/default/production/_ext/1496989791/ZGWifiMgrII.o
 .reginfo       0x00000000       0x18 build/default/production/_ext/1496989791/ZGAdhocMgrII.o
 .pdr           0x00000000        0x0 build/default/production/_ext/1496989791/ZGAdhocMgrII.o
 .reginfo       0x00000000       0x18 build/default/production/_ext/1496989791/ZGCommon.o
 .pdr           0x00000000      0x260 build/default/production/_ext/1496989791/ZGCommon.o
 .reginfo       0x00000000       0x18 build/default/production/_ext/1496989791/ZGLibCfg.o
 .pdr           0x00000000      0x220 build/default/production/_ext/1496989791/ZGLibCfg.o
 .reginfo       0x00000000       0x18 build/default/production/_ext/1496989791/ZGLibIface.o
 .pdr           0x00000000      0x420 build/default/production/_ext/1496989791/ZGLibIface.o
 .reginfo       0x00000000       0x18 build/default/production/_ext/1496989791/ZGLinkMgrII.o
 .pdr           0x00000000       0xe0 build/default/production/_ext/1496989791/ZGLinkMgrII.o
 .reginfo       0x00000000       0x18 build/default/production/_ext/1496989791/ZGEasyConfig.o
 .pdr           0x00000000        0x0 build/default/production/_ext/1496989791/ZGEasyConfig.o
 .reginfo       0x00000000       0x18 build/default/production/_ext/1472/MainDemo.o
 .pdr           0x00000000       0xc0 build/default/production/_ext/1472/MainDemo.o
 .reginfo       0x00000000       0x18 build/default/production/_ext/1472/CustomHTTPApp.o
 .pdr           0x00000000      0x500 build/default/production/_ext/1472/CustomHTTPApp.o
 .reginfo       0x00000000       0x18 build/default/production/_ext/1472/CustomSNMPApp.o
 .pdr           0x00000000        0x0 build/default/production/_ext/1472/CustomSNMPApp.o
 .reginfo       0x00000000       0x18 build/default/production/_ext/1472/CustomSSLCert.o
 .pdr           0x00000000        0x0 build/default/production/_ext/1472/CustomSSLCert.o
 .reginfo       0x00000000       0x18 C:/Program Files (x86)/Microchip/MPLAB C32/bin/../lib/gcc/pic32mx/3.4.4\libgcc.a(_udivdi3.o)
 .pdr           0x00000000       0x20 C:/Program Files (x86)/Microchip/MPLAB C32/bin/../lib/gcc/pic32mx/3.4.4\libgcc.a(_udivdi3.o)
 .reginfo       0x00000000       0x18 C:/Program Files (x86)/Microchip/MPLAB C32/bin/../lib/gcc/pic32mx/3.4.4/../../../../pic32mx/lib\libc.a(memcmp.o)
 .pdr           0x00000000       0x20 C:/Program Files (x86)/Microchip/MPLAB C32/bin/../lib/gcc/pic32mx/3.4.4/../../../../pic32mx/lib\libc.a(memcmp.o)
 .reginfo       0x00000000       0x18 C:/Program Files (x86)/Microchip/MPLAB C32/bin/../lib/gcc/pic32mx/3.4.4/../../../../pic32mx/lib\libc.a(memcpy.o)
 .pdr           0x00000000       0x20 C:/Program Files (x86)/Microchip/MPLAB C32/bin/../lib/gcc/pic32mx/3.4.4/../../../../pic32mx/lib\libc.a(memcpy.o)
 .reginfo       0x00000000       0x18 C:/Program Files (x86)/Microchip/MPLAB C32/bin/../lib/gcc/pic32mx/3.4.4/../../../../pic32mx/lib\libc.a(memset.o)
 .pdr           0x00000000       0x20 C:/Program Files (x86)/Microchip/MPLAB C32/bin/../lib/gcc/pic32mx/3.4.4/../../../../pic32mx/lib\libc.a(memset.o)
 .reginfo       0x00000000       0x18 C:/Program Files (x86)/Microchip/MPLAB C32/bin/../lib/gcc/pic32mx/3.4.4/../../../../pic32mx/lib\libc.a(strcmp.o)
 .pdr           0x00000000       0x20 C:/Program Files (x86)/Microchip/MPLAB C32/bin/../lib/gcc/pic32mx/3.4.4/../../../../pic32mx/lib\libc.a(strcmp.o)
 .reginfo       0x00000000       0x18 C:/Program Files (x86)/Microchip/MPLAB C32/bin/../lib/gcc/pic32mx/3.4.4/../../../../pic32mx/lib\libc.a(strcpy.o)
 .pdr           0x00000000       0x20 C:/Program Files (x86)/Microchip/MPLAB C32/bin/../lib/gcc/pic32mx/3.4.4/../../../../pic32mx/lib\libc.a(strcpy.o)
 .reginfo       0x00000000       0x18 C:/Program Files (x86)/Microchip/MPLAB C32/bin/../lib/gcc/pic32mx/3.4.4/../../../../pic32mx/lib\libc.a(strlen.o)
 .pdr           0x00000000       0x20 C:/Program Files (x86)/Microchip/MPLAB C32/bin/../lib/gcc/pic32mx/3.4.4/../../../../pic32mx/lib\libc.a(strlen.o)
 .reginfo       0x00000000       0x18 C:/Program Files (x86)/Microchip/MPLAB C32/bin/../lib/gcc/pic32mx/3.4.4/../../../../pic32mx/lib\libc.a(general-exception.o)
 .pdr           0x00000000       0x20 C:/Program Files (x86)/Microchip/MPLAB C32/bin/../lib/gcc/pic32mx/3.4.4/../../../../pic32mx/lib\libc.a(general-exception.o)
 .reginfo       0x00000000       0x18 C:/Program Files (x86)/Microchip/MPLAB C32/bin/../lib/gcc/pic32mx/3.4.4/../../../../pic32mx/lib\libc.a(strncmp.o)
 .pdr           0x00000000       0x20 C:/Program Files (x86)/Microchip/MPLAB C32/bin/../lib/gcc/pic32mx/3.4.4/../../../../pic32mx/lib\libc.a(strncmp.o)
 .reginfo       0x00000000       0x18 C:/Program Files (x86)/Microchip/MPLAB C32/bin/../lib/gcc/pic32mx/3.4.4/../../../../pic32mx/lib\libc.a(exit.o)
 .pdr           0x00000000       0x20 C:/Program Files (x86)/Microchip/MPLAB C32/bin/../lib/gcc/pic32mx/3.4.4/../../../../pic32mx/lib\libc.a(exit.o)
 .reginfo       0x00000000       0x18 C:/Program Files (x86)/Microchip/MPLAB C32/bin/../lib/gcc/pic32mx/3.4.4/../../../../pic32mx/lib\libc.a(rand.o)
 .pdr           0x00000000       0x60 C:/Program Files (x86)/Microchip/MPLAB C32/bin/../lib/gcc/pic32mx/3.4.4/../../../../pic32mx/lib\libc.a(rand.o)
 .reginfo       0x00000000       0x18 C:/Program Files (x86)/Microchip/MPLAB C32/bin/../lib/gcc/pic32mx/3.4.4/../../../../pic32mx/lib\libc.a(atol.o)
 .pdr           0x00000000       0x20 C:/Program Files (x86)/Microchip/MPLAB C32/bin/../lib/gcc/pic32mx/3.4.4/../../../../pic32mx/lib\libc.a(atol.o)
 .reginfo       0x00000000       0x18 C:/Program Files (x86)/Microchip/MPLAB C32/bin/../lib/gcc/pic32mx/3.4.4/../../../../pic32mx/lib\libc.a(atoi.o)
 .pdr           0x00000000       0x20 C:/Program Files (x86)/Microchip/MPLAB C32/bin/../lib/gcc/pic32mx/3.4.4/../../../../pic32mx/lib\libc.a(atoi.o)
 .reginfo       0x00000000       0x18 C:/Program Files (x86)/Microchip/MPLAB C32/bin/../lib/gcc/pic32mx/3.4.4/../../../../pic32mx/lib\libc.a(strtol.o)
 .pdr           0x00000000       0x20 C:/Program Files (x86)/Microchip/MPLAB C32/bin/../lib/gcc/pic32mx/3.4.4/../../../../pic32mx/lib\libc.a(strtol.o)
 .reginfo       0x00000000       0x18 C:/Program Files (x86)/Microchip/MPLAB C32/bin/../lib/gcc/pic32mx/3.4.4/../../../../pic32mx/lib\libc.a(stubs.o)
 .pdr           0x00000000      0x2c0 C:/Program Files (x86)/Microchip/MPLAB C32/bin/../lib/gcc/pic32mx/3.4.4/../../../../pic32mx/lib\libc.a(stubs.o)
 .reginfo       0x00000000       0x18 C:/Program Files (x86)/Microchip/MPLAB C32/bin/../lib/gcc/pic32mx/3.4.4/../../../../pic32mx/lib\libc.a(default-bootstrap-exception-handler.o)
 .pdr           0x00000000       0x20 C:/Program Files (x86)/Microchip/MPLAB C32/bin/../lib/gcc/pic32mx/3.4.4/../../../../pic32mx/lib\libc.a(default-bootstrap-exception-handler.o)
 .reginfo       0x00000000       0x18 C:/Program Files (x86)/Microchip/MPLAB C32/bin/../lib/gcc/pic32mx/3.4.4/../../../../pic32mx/lib\libc.a(default-on-reset.o)
 .pdr           0x00000000       0x20 C:/Program Files (x86)/Microchip/MPLAB C32/bin/../lib/gcc/pic32mx/3.4.4/../../../../pic32mx/lib\libc.a(default-on-reset.o)
 .reginfo       0x00000000       0x18 C:/Program Files (x86)/Microchip/MPLAB C32/bin/../lib/gcc/pic32mx/3.4.4/../../../../pic32mx/lib\libc.a(default-on-bootstrap.o)
 .pdr           0x00000000       0x20 C:/Program Files (x86)/Microchip/MPLAB C32/bin/../lib/gcc/pic32mx/3.4.4/../../../../pic32mx/lib\libc.a(default-on-bootstrap.o)
 .reginfo       0x00000000       0x18 C:/Program Files (x86)/Microchip/MPLAB C32/bin/../lib/gcc/pic32mx/3.4.4/../../../../pic32mx/lib\libc.a(default-nmi-handler.o)
 .pdr           0x00000000       0x20 C:/Program Files (x86)/Microchip/MPLAB C32/bin/../lib/gcc/pic32mx/3.4.4/../../../../pic32mx/lib\libc.a(default-nmi-handler.o)
 .reginfo       0x00000000       0x18 C:/Program Files (x86)/Microchip/MPLAB C32/bin/../lib/gcc/pic32mx/3.4.4/../../../../pic32mx/lib\libc.a(_exit.o)
 .pdr           0x00000000       0x20 C:/Program Files (x86)/Microchip/MPLAB C32/bin/../lib/gcc/pic32mx/3.4.4/../../../../pic32mx/lib\libc.a(_exit.o)
 .reginfo       0x00000000       0x18 C:/Program Files (x86)/Microchip/MPLAB C32/bin/../lib/gcc/pic32mx/3.4.4/../../../../pic32mx/lib\libc.a(ctype.o)
 .pdr           0x00000000        0x0 C:/Program Files (x86)/Microchip/MPLAB C32/bin/../lib/gcc/pic32mx/3.4.4/../../../../pic32mx/lib\libc.a(ctype.o)
 .reginfo       0x00000000       0x18 C:/Program Files (x86)/Microchip/MPLAB C32/bin/../lib/gcc/pic32mx/3.4.4/../../../../pic32mx/lib\libc.a(errno.o)
 .pdr           0x00000000        0x0 C:/Program Files (x86)/Microchip/MPLAB C32/bin/../lib/gcc/pic32mx/3.4.4/../../../../pic32mx/lib\libc.a(errno.o)
 .reginfo       0x00000000       0x18 C:/Program Files (x86)/Microchip/MPLAB C32/bin/../lib/gcc/pic32mx/3.4.4/../../../../pic32mx/lib\libmchp_peripheral_32MX460F512L.a(soft_reset_lib.o)
 .pdr           0x00000000       0x20 C:/Program Files (x86)/Microchip/MPLAB C32/bin/../lib/gcc/pic32mx/3.4.4/../../../../pic32mx/lib\libmchp_peripheral_32MX460F512L.a(soft_reset_lib.o)
 .reginfo       0x00000000       0x18 C:/Program Files (x86)/Microchip/MPLAB C32/bin/../lib/gcc/pic32mx/3.4.4/../../../../pic32mx/lib\libmchp_peripheral_32MX460F512L.a(pcache.o)
 .pdr           0x00000000       0x40 C:/Program Files (x86)/Microchip/MPLAB C32/bin/../lib/gcc/pic32mx/3.4.4/../../../../pic32mx/lib\libmchp_peripheral_32MX460F512L.a(pcache.o)
 .reginfo       0x00000000       0x18 C:/Program Files (x86)/Microchip/MPLAB C32/bin/../lib/gcc/pic32mx/3.4.4/../../../../pic32mx/lib\libmchp_peripheral_32MX460F512L.a(int_disable_interrupts_lib.o)
 .pdr           0x00000000       0x20 C:/Program Files (x86)/Microchip/MPLAB C32/bin/../lib/gcc/pic32mx/3.4.4/../../../../pic32mx/lib\libmchp_peripheral_32MX460F512L.a(int_disable_interrupts_lib.o)
 .reginfo       0x00000000       0x18 C:/Program Files (x86)/Microchip/MPLAB C32/bin/../lib/gcc/pic32mx/3.4.4/../../../../pic32mx/lib\libmchp_peripheral_32MX460F512L.a(int_restore_interrupts_lib.o)
 .pdr           0x00000000       0x20 C:/Program Files (x86)/Microchip/MPLAB C32/bin/../lib/gcc/pic32mx/3.4.4/../../../../pic32mx/lib\libmchp_peripheral_32MX460F512L.a(int_restore_interrupts_lib.o)
 .reginfo       0x00000000       0x18 C:/Program Files (x86)/Microchip/MPLAB C32/bin/../lib/gcc/pic32mx/3.4.4/../../../../pic32mx/lib\libmchp_peripheral_32MX460F512L.a(int_enable_mv_int_lib.o)
 .pdr           0x00000000       0x20 C:/Program Files (x86)/Microchip/MPLAB C32/bin/../lib/gcc/pic32mx/3.4.4/../../../../pic32mx/lib\libmchp_peripheral_32MX460F512L.a(int_enable_mv_int_lib.o)
 .reginfo       0x00000000       0x18 C:/Program Files (x86)/Microchip/MPLAB C32/bin/../lib/gcc/pic32mx/3.4.4/../../../../pic32mx/lib\libmchp_peripheral_32MX460F512L.a(puts_uartx_lib_legacy.o)
 .pdr           0x00000000       0x40 C:/Program Files (x86)/Microchip/MPLAB C32/bin/../lib/gcc/pic32mx/3.4.4/../../../../pic32mx/lib\libmchp_peripheral_32MX460F512L.a(puts_uartx_lib_legacy.o)
 .reginfo       0x00000000       0x18 C:/Program Files (x86)/Microchip/MPLAB C32/bin/../lib/gcc/pic32mx/3.4.4/../../../../pic32mx/lib\libmchp_peripheral_32MX460F512L.a(int_enable_interrupts_lib.o)
 .pdr           0x00000000       0x20 C:/Program Files (x86)/Microchip/MPLAB C32/bin/../lib/gcc/pic32mx/3.4.4/../../../../pic32mx/lib\libmchp_peripheral_32MX460F512L.a(int_enable_interrupts_lib.o)
 .reginfo       0x00000000       0x18 C:/Program Files (x86)/Microchip/MPLAB C32/bin/../lib/gcc/pic32mx/3.4.4/../../../../pic32mx/lib/./proc/32MX460F512L\processor.o
 .pdr           0x00000000        0x0 C:/Program Files (x86)/Microchip/MPLAB C32/bin/../lib/gcc/pic32mx/3.4.4/../../../../pic32mx/lib/./proc/32MX460F512L\processor.o

Memory Configuration

Name             Origin             Length             Attributes
kseg0_program_mem 0x9d000000         0x00080000         xr
kseg0_boot_mem   0x9fc00490         0x00000970
exception_mem    0x9fc01000         0x00001000
kseg1_boot_mem   0xbfc00000         0x00000490
debug_exec_mem   0xbfc02000         0x00000ff0
config3          0xbfc02ff0         0x00000004
config2          0xbfc02ff4         0x00000004
config1          0xbfc02ff8         0x00000004
config0          0xbfc02ffc         0x00000004
kseg1_data_mem   0xa0000000         0x00008000         w !x
sfrs             0xbf800000         0x00100000
configsfrs       0xbfc02ff0         0x00000010
*default*        0x00000000         0xffffffff

Linker script and memory map

LOAD C:/Program Files (x86)/Microchip/MPLAB C32/bin/../lib/gcc/pic32mx/3.4.4/../../../../pic32mx/lib/crt0.o
LOAD build/default/production/_ext/1472/UARTConfig.o
LOAD build/default/production/_ext/1472/GenericTCPClient.o
LOAD build/default/production/_ext/1472/GenericTCPServer.o
LOAD build/default/production/_ext/1472/LegacyHTTPApp.o
LOAD build/default/production/_ext/1472/PingDemo.o
LOAD build/default/production/_ext/1472/SMTPDemo.o
LOAD build/default/production/_ext/1472/BerkeleyUDPClientDemo.o
LOAD build/default/production/_ext/1472/BerkeleyTCPClientDemo.o
LOAD build/default/production/_ext/1472/BerkeleyTCPServerDemo.o
LOAD build/default/production/_ext/1295770447/UDPPerformanceTest.o
LOAD build/default/production/_ext/1295770447/Announce.o
LOAD build/default/production/_ext/1295770447/ARP.o
LOAD build/default/production/_ext/1295770447/Delay.o
LOAD build/default/production/_ext/1295770447/DHCP.o
LOAD build/default/production/_ext/1295770447/DHCPs.o
LOAD build/default/production/_ext/1295770447/DNS.o
LOAD build/default/production/_ext/1295770447/DynDNS.o
LOAD build/default/production/_ext/1295770447/FTP.o
LOAD build/default/production/_ext/1295770447/Hashes.o
LOAD build/default/production/_ext/1295770447/Helpers.o
LOAD build/default/production/_ext/1295770447/HTTP2.o
LOAD build/default/production/_ext/1295770447/HTTP.o
LOAD build/default/production/_ext/1295770447/ICMP.o
LOAD build/default/production/_ext/1295770447/IP.o
LOAD build/default/production/_ext/1295770447/LCDBlocking.o
LOAD build/default/production/_ext/1295770447/MPFS2.o
LOAD build/default/production/_ext/1295770447/MPFS.o
LOAD build/default/production/_ext/1295770447/NBNS.o
LOAD build/default/production/_ext/1295770447/Reboot.o
LOAD build/default/production/_ext/1295770447/SMTP.o
LOAD build/default/production/_ext/1295770447/SNMP.o
LOAD build/default/production/_ext/1295770447/SNTP.o
LOAD build/default/production/_ext/1295770447/StackTsk.o
LOAD build/default/production/_ext/1295770447/TCP.o
LOAD build/default/production/_ext/1295770447/TCPPerformanceTest.o
LOAD build/default/production/_ext/1295770447/Telnet.o
LOAD build/default/production/_ext/1295770447/TFTPc.o
LOAD build/default/production/_ext/1295770447/Tick.o
LOAD build/default/production/_ext/1295770447/UART2TCPBridge.o
LOAD build/default/production/_ext/1295770447/UART.o
LOAD build/default/production/_ext/1295770447/UDP.o
LOAD build/default/production/_ext/1295770447/BerkeleyAPI.o
LOAD build/default/production/_ext/1472/MPFSImg2.o
LOAD build/default/production/_ext/1295770447/SSL.o
LOAD build/default/production/_ext/1295770447/ARCFOUR.o
LOAD build/default/production/_ext/1295770447/BigInt.o
LOAD build/default/production/_ext/1295770447/BigInt_helper_C32.o
LOAD build/default/production/_ext/1295770447/Random.o
LOAD build/default/production/_ext/1295770447/RSA.o
LOAD build/default/production/_ext/1295770447/AutoIP.o
LOAD build/default/production/_ext/1496989791/ZGDriverRaw.o
LOAD build/default/production/_ext/1496989791/ZGAccessApp.o
LOAD build/default/production/_ext/1496989791/ZGAccessSys.o
LOAD build/default/production/_ext/1496989791/ZGEint.o
LOAD build/default/production/_ext/1496989791/ZGHWReset.o
LOAD build/default/production/_ext/1496989791/ZGSpi.o
LOAD build/default/production/_ext/1496989791/ZG2100.o
LOAD build/default/production/_ext/1496989791/ZGDriverCom.o
LOAD build/default/production/_ext/1496989791/ZGDriverIFace.o
LOAD build/default/production/_ext/1496989791/ZGDriverMac.o
LOAD build/default/production/_ext/1496989791/ZGWifiMgrII.o
LOAD build/default/production/_ext/1496989791/ZGAdhocMgrII.o
LOAD build/default/production/_ext/1496989791/ZGCommon.o
LOAD build/default/production/_ext/1496989791/ZGLibCfg.o
LOAD build/default/production/_ext/1496989791/ZGLibIface.o
LOAD build/default/production/_ext/1496989791/ZGLinkMgrII.o
LOAD build/default/production/_ext/1496989791/ZGEasyConfig.o
LOAD build/default/production/_ext/1472/MainDemo.o
LOAD build/default/production/_ext/1472/CustomHTTPApp.o
LOAD build/default/production/_ext/1472/CustomSNMPApp.o
LOAD build/default/production/_ext/1472/CustomSSLCert.o
                0x00000001                __MPLAB_BUILD = 0x1
LOAD C:/Program Files (x86)/Microchip/MPLAB C32/bin/../lib/gcc/pic32mx/3.4.4\libgcc.a
START GROUP
LOAD C:/Program Files (x86)/Microchip/MPLAB C32/bin/../lib/gcc/pic32mx/3.4.4/../../../../pic32mx/lib\libdebug.a
LOAD C:/Program Files (x86)/Microchip/MPLAB C32/bin/../lib/gcc/pic32mx/3.4.4/../../../../pic32mx/lib\libc.a
LOAD C:/Program Files (x86)/Microchip/MPLAB C32/bin/../lib/gcc/pic32mx/3.4.4/../../../../pic32mx/lib\libm.a
LOAD C:/Program Files (x86)/Microchip/MPLAB C32/bin/../lib/gcc/pic32mx/3.4.4/../../../../pic32mx/lib\libe.a
LOAD C:/Program Files (x86)/Microchip/MPLAB C32/bin/../lib/gcc/pic32mx/3.4.4/../../../../pic32mx/lib\libdsp.a
LOAD C:/Program Files (x86)/Microchip/MPLAB C32/bin/../lib/gcc/pic32mx/3.4.4/../../../../pic32mx/lib\libmchp_peripheral.a
LOAD C:/Program Files (x86)/Microchip/MPLAB C32/bin/../lib/gcc/pic32mx/3.4.4/../../../../pic32mx/lib\libmchp_peripheral_32MX460F512L.a
END GROUP
LOAD C:/Program Files (x86)/Microchip/MPLAB C32/bin/../lib/gcc/pic32mx/3.4.4\libgcc.a
                0x00000400                PROVIDE (_min_stack_size, 0x400)
                0x00000000                PROVIDE (_min_heap_size, 0x0)
LOAD C:/Program Files (x86)/Microchip/MPLAB C32/bin/../lib/gcc/pic32mx/3.4.4/../../../../pic32mx/lib/./proc/32MX460F512L\processor.o
                0x00000001                PROVIDE (_vector_spacing, 0x1)
                0x9fc01000                _ebase_address = 0x9fc01000
                0xbfc00000                _RESET_ADDR = 0xbfc00000
                0xbfc00380                _BEV_EXCPT_ADDR = 0xbfc00380
                0xbfc00480                _DBG_EXCPT_ADDR = 0xbfc00480
                0xbfc02000                _DBG_CODE_ADDR = 0xbfc02000
                0x9fc01180                _GEN_EXCPT_ADDR = (_ebase_address + 0x180)

.config_BFC02FF0
 *(.config_BFC02FF0)

.config_BFC02FF4
                0xbfc02ff4        0x4
 *(.config_BFC02FF4)
 .config_BFC02FF4
                0xbfc02ff4        0x4 build/default/production/_ext/1472/MainDemo.o

.config_BFC02FF8
                0xbfc02ff8        0x4
 *(.config_BFC02FF8)
 .config_BFC02FF8
                0xbfc02ff8        0x4 build/default/production/_ext/1472/MainDemo.o

.config_BFC02FFC
                0xbfc02ffc        0x4
 *(.config_BFC02FFC)
 .config_BFC02FFC
                0xbfc02ffc        0x4 build/default/production/_ext/1472/MainDemo.o

.reset          0xbfc00000       0x10
 *(.reset)
 .reset         0xbfc00000       0x10 C:/Program Files (x86)/Microchip/MPLAB C32/bin/../lib/gcc/pic32mx/3.4.4/../../../../pic32mx/lib/crt0.o
                0xbfc00000                _reset

.bev_excpt      0xbfc00380       0x10
 *(.bev_handler)
 .bev_handler   0xbfc00380       0x10 C:/Program Files (x86)/Microchip/MPLAB C32/bin/../lib/gcc/pic32mx/3.4.4/../../../../pic32mx/lib/crt0.o

.dbg_excpt      0xbfc00480        0x0
                0xbfc00480                . = (. + DEFINED (_DEBUGGER)?0x8:0x0)

.dbg_code       0xbfc02000        0x0
                0xbfc02000                . = (. + DEFINED (_DEBUGGER)?0xff0:0x0)

.app_excpt      0x9fc01180       0x10
 *(.gen_handler)
 .gen_handler   0x9fc01180       0x10 C:/Program Files (x86)/Microchip/MPLAB C32/bin/../lib/gcc/pic32mx/3.4.4/../../../../pic32mx/lib/crt0.o

.vector_0       0x9fc01200        0x0
 *(.vector_0)
                0x00000001                ASSERT (((_vector_spacing == 0x0) || (SIZEOF (.vector_0) <= (_vector_spacing << 0x5))), function at exception vector 0 too large)

.vector_1       0x9fc01220        0x0
 *(.vector_1)
                0x00000001                ASSERT (((_vector_spacing == 0x0) || (SIZEOF (.vector_1) <= (_vector_spacing << 0x5))), function at exception vector 1 too large)

.vector_2       0x9fc01240        0x0
 *(.vector_2)
                0x00000001                ASSERT (((_vector_spacing == 0x0) || (SIZEOF (.vector_2) <= (_vector_spacing << 0x5))), function at exception vector 2 too large)

.vector_3       0x9fc01260        0x0
 *(.vector_3)
                0x00000001                ASSERT (((_vector_spacing == 0x0) || (SIZEOF (.vector_3) <= (_vector_spacing << 0x5))), function at exception vector 3 too large)

.vector_4       0x9fc01280        0x8
 *(.vector_4)
 .vector_4      0x9fc01280        0x8 build/default/production/_ext/1295770447/Tick.o
                0x00000001                ASSERT (((_vector_spacing == 0x0) || (SIZEOF (.vector_4) <= (_vector_spacing << 0x5))), function at exception vector 4 too large)

.vector_5       0x9fc012a0        0x0
 *(.vector_5)
                0x00000001                ASSERT (((_vector_spacing == 0x0) || (SIZEOF (.vector_5) <= (_vector_spacing << 0x5))), function at exception vector 5 too large)

.vector_6       0x9fc012c0        0x0
 *(.vector_6)
                0x00000001                ASSERT (((_vector_spacing == 0x0) || (SIZEOF (.vector_6) <= (_vector_spacing << 0x5))), function at exception vector 6 too large)

.vector_7       0x9fc012e0        0x0
 *(.vector_7)
                0x00000001                ASSERT (((_vector_spacing == 0x0) || (SIZEOF (.vector_7) <= (_vector_spacing << 0x5))), function at exception vector 7 too large)

.vector_8       0x9fc01300        0x8
 *(.vector_8)
 .vector_8      0x9fc01300        0x8 build/default/production/_ext/1496989791/ZGEint.o
                0x00000001                ASSERT (((_vector_spacing == 0x0) || (SIZEOF (.vector_8) <= (_vector_spacing << 0x5))), function at exception vector 8 too large)

.vector_9       0x9fc01320        0x0
 *(.vector_9)
                0x00000001                ASSERT (((_vector_spacing == 0x0) || (SIZEOF (.vector_9) <= (_vector_spacing << 0x5))), function at exception vector 9 too large)

.vector_10      0x9fc01340        0x0
 *(.vector_10)
                0x00000001                ASSERT (((_vector_spacing == 0x0) || (SIZEOF (.vector_10) <= (_vector_spacing << 0x5))), function at exception vector 10 too large)

.vector_11      0x9fc01360        0x0
 *(.vector_11)
                0x00000001                ASSERT (((_vector_spacing == 0x0) || (SIZEOF (.vector_11) <= (_vector_spacing << 0x5))), function at exception vector 11 too large)

.vector_12      0x9fc01380        0x0
 *(.vector_12)
                0x00000001                ASSERT (((_vector_spacing == 0x0) || (SIZEOF (.vector_12) <= (_vector_spacing << 0x5))), function at exception vector 12 too large)

.vector_13      0x9fc013a0        0x0
 *(.vector_13)
                0x00000001                ASSERT (((_vector_spacing == 0x0) || (SIZEOF (.vector_13) <= (_vector_spacing << 0x5))), function at exception vector 13 too large)

.vector_14      0x9fc013c0        0x0
 *(.vector_14)
                0x00000001                ASSERT (((_vector_spacing == 0x0) || (SIZEOF (.vector_14) <= (_vector_spacing << 0x5))), function at exception vector 14 too large)

.vector_15      0x9fc013e0        0x0
 *(.vector_15)
                0x00000001                ASSERT (((_vector_spacing == 0x0) || (SIZEOF (.vector_15) <= (_vector_spacing << 0x5))), function at exception vector 15 too large)

.vector_16      0x9fc01400        0x0
 *(.vector_16)
                0x00000001                ASSERT (((_vector_spacing == 0x0) || (SIZEOF (.vector_16) <= (_vector_spacing << 0x5))), function at exception vector 16 too large)

.vector_17      0x9fc01420        0x0
 *(.vector_17)
                0x00000001                ASSERT (((_vector_spacing == 0x0) || (SIZEOF (.vector_17) <= (_vector_spacing << 0x5))), function at exception vector 17 too large)

.vector_18      0x9fc01440        0x0
 *(.vector_18)
                0x00000001                ASSERT (((_vector_spacing == 0x0) || (SIZEOF (.vector_18) <= (_vector_spacing << 0x5))), function at exception vector 18 too large)

.vector_19      0x9fc01460        0x0
 *(.vector_19)
                0x00000001                ASSERT (((_vector_spacing == 0x0) || (SIZEOF (.vector_19) <= (_vector_spacing << 0x5))), function at exception vector 19 too large)

.vector_20      0x9fc01480        0x0
 *(.vector_20)
                0x00000001                ASSERT (((_vector_spacing == 0x0) || (SIZEOF (.vector_20) <= (_vector_spacing << 0x5))), function at exception vector 20 too large)

.vector_21      0x9fc014a0        0x0
 *(.vector_21)
                0x00000001                ASSERT (((_vector_spacing == 0x0) || (SIZEOF (.vector_21) <= (_vector_spacing << 0x5))), function at exception vector 21 too large)

.vector_22      0x9fc014c0        0x0
 *(.vector_22)
                0x00000001                ASSERT (((_vector_spacing == 0x0) || (SIZEOF (.vector_22) <= (_vector_spacing << 0x5))), function at exception vector 22 too large)

.vector_23      0x9fc014e0        0x0
 *(.vector_23)
                0x00000001                ASSERT (((_vector_spacing == 0x0) || (SIZEOF (.vector_23) <= (_vector_spacing << 0x5))), function at exception vector 23 too large)

.vector_24      0x9fc01500        0x0
 *(.vector_24)
                0x00000001                ASSERT (((_vector_spacing == 0x0) || (SIZEOF (.vector_24) <= (_vector_spacing << 0x5))), function at exception vector 24 too large)

.vector_25      0x9fc01520        0x0
 *(.vector_25)
                0x00000001                ASSERT (((_vector_spacing == 0x0) || (SIZEOF (.vector_25) <= (_vector_spacing << 0x5))), function at exception vector 25 too large)

.vector_26      0x9fc01540        0x0
 *(.vector_26)
                0x00000001                ASSERT (((_vector_spacing == 0x0) || (SIZEOF (.vector_26) <= (_vector_spacing << 0x5))), function at exception vector 26 too large)

.vector_27      0x9fc01560        0x0
 *(.vector_27)
                0x00000001                ASSERT (((_vector_spacing == 0x0) || (SIZEOF (.vector_27) <= (_vector_spacing << 0x5))), function at exception vector 27 too large)

.vector_28      0x9fc01580        0x0
 *(.vector_28)
                0x00000001                ASSERT (((_vector_spacing == 0x0) || (SIZEOF (.vector_28) <= (_vector_spacing << 0x5))), function at exception vector 28 too large)

.vector_29      0x9fc015a0        0x0
 *(.vector_29)
                0x00000001                ASSERT (((_vector_spacing == 0x0) || (SIZEOF (.vector_29) <= (_vector_spacing << 0x5))), function at exception vector 29 too large)

.vector_30      0x9fc015c0        0x0
 *(.vector_30)
                0x00000001                ASSERT (((_vector_spacing == 0x0) || (SIZEOF (.vector_30) <= (_vector_spacing << 0x5))), function at exception vector 30 too large)

.vector_31      0x9fc015e0        0x0
 *(.vector_31)
                0x00000001                ASSERT (((_vector_spacing == 0x0) || (SIZEOF (.vector_31) <= (_vector_spacing << 0x5))), function at exception vector 31 too large)

.vector_32      0x9fc01600        0x0
 *(.vector_32)
                0x00000001                ASSERT (((_vector_spacing == 0x0) || (SIZEOF (.vector_32) <= (_vector_spacing << 0x5))), function at exception vector 32 too large)

.vector_33      0x9fc01620        0x0
 *(.vector_33)
                0x00000001                ASSERT (((_vector_spacing == 0x0) || (SIZEOF (.vector_33) <= (_vector_spacing << 0x5))), function at exception vector 33 too large)

.vector_34      0x9fc01640        0x0
 *(.vector_34)
                0x00000001                ASSERT (((_vector_spacing == 0x0) || (SIZEOF (.vector_34) <= (_vector_spacing << 0x5))), function at exception vector 34 too large)

.vector_35      0x9fc01660        0x0
 *(.vector_35)
                0x00000001                ASSERT (((_vector_spacing == 0x0) || (SIZEOF (.vector_35) <= (_vector_spacing << 0x5))), function at exception vector 35 too large)

.vector_36      0x9fc01680        0x0
 *(.vector_36)
                0x00000001                ASSERT (((_vector_spacing == 0x0) || (SIZEOF (.vector_36) <= (_vector_spacing << 0x5))), function at exception vector 36 too large)

.vector_37      0x9fc016a0        0x0
 *(.vector_37)
                0x00000001                ASSERT (((_vector_spacing == 0x0) || (SIZEOF (.vector_37) <= (_vector_spacing << 0x5))), function at exception vector 37 too large)

.vector_38      0x9fc016c0        0x0
 *(.vector_38)
                0x00000001                ASSERT (((_vector_spacing == 0x0) || (SIZEOF (.vector_38) <= (_vector_spacing << 0x5))), function at exception vector 38 too large)

.vector_39      0x9fc016e0        0x0
 *(.vector_39)
                0x00000001                ASSERT (((_vector_spacing == 0x0) || (SIZEOF (.vector_39) <= (_vector_spacing << 0x5))), function at exception vector 39 too large)

.vector_40      0x9fc01700        0x0
 *(.vector_40)
                0x00000001                ASSERT (((_vector_spacing == 0x0) || (SIZEOF (.vector_40) <= (_vector_spacing << 0x5))), function at exception vector 40 too large)

.vector_41      0x9fc01720        0x0
 *(.vector_41)
                0x00000001                ASSERT (((_vector_spacing == 0x0) || (SIZEOF (.vector_41) <= (_vector_spacing << 0x5))), function at exception vector 41 too large)

.vector_42      0x9fc01740        0x0
 *(.vector_42)
                0x00000001                ASSERT (((_vector_spacing == 0x0) || (SIZEOF (.vector_42) <= (_vector_spacing << 0x5))), function at exception vector 42 too large)

.vector_43      0x9fc01760        0x0
 *(.vector_43)
                0x00000001                ASSERT (((_vector_spacing == 0x0) || (SIZEOF (.vector_43) <= (_vector_spacing << 0x5))), function at exception vector 43 too large)

.vector_44      0x9fc01780        0x0
 *(.vector_44)
                0x00000001                ASSERT (((_vector_spacing == 0x0) || (SIZEOF (.vector_44) <= (_vector_spacing << 0x5))), function at exception vector 44 too large)

.vector_45      0x9fc017a0        0x0
 *(.vector_45)
                0x00000001                ASSERT (((_vector_spacing == 0x0) || (SIZEOF (.vector_45) <= (_vector_spacing << 0x5))), function at exception vector 45 too large)

.vector_46      0x9fc017c0        0x0
 *(.vector_46)
                0x00000001                ASSERT (((_vector_spacing == 0x0) || (SIZEOF (.vector_46) <= (_vector_spacing << 0x5))), function at exception vector 46 too large)

.vector_47      0x9fc017e0        0x0
 *(.vector_47)
                0x00000001                ASSERT (((_vector_spacing == 0x0) || (SIZEOF (.vector_47) <= (_vector_spacing << 0x5))), function at exception vector 47 too large)

.vector_48      0x9fc01800        0x0
 *(.vector_48)
                0x00000001                ASSERT (((_vector_spacing == 0x0) || (SIZEOF (.vector_48) <= (_vector_spacing << 0x5))), function at exception vector 48 too large)

.vector_49      0x9fc01820        0x0
 *(.vector_49)
                0x00000001                ASSERT (((_vector_spacing == 0x0) || (SIZEOF (.vector_49) <= (_vector_spacing << 0x5))), function at exception vector 49 too large)

.vector_50      0x9fc01840        0x0
 *(.vector_50)
                0x00000001                ASSERT (((_vector_spacing == 0x0) || (SIZEOF (.vector_50) <= (_vector_spacing << 0x5))), function at exception vector 50 too large)

.vector_51      0x9fc01860        0x0
 *(.vector_51)
                0x00000001                ASSERT (((_vector_spacing == 0x0) || (SIZEOF (.vector_51) <= (_vector_spacing << 0x5))), function at exception vector 51 too large)

.vector_52      0x9fc01880        0x0
 *(.vector_52)
                0x00000001                ASSERT (((_vector_spacing == 0x0) || (SIZEOF (.vector_52) <= (_vector_spacing << 0x5))), function at exception vector 52 too large)

.vector_53      0x9fc018a0        0x0
 *(.vector_53)
                0x00000001                ASSERT (((_vector_spacing == 0x0) || (SIZEOF (.vector_53) <= (_vector_spacing << 0x5))), function at exception vector 53 too large)

.vector_54      0x9fc018c0        0x0
 *(.vector_54)
                0x00000001                ASSERT (((_vector_spacing == 0x0) || (SIZEOF (.vector_54) <= (_vector_spacing << 0x5))), function at exception vector 54 too large)

.vector_55      0x9fc018e0        0x0
 *(.vector_55)
                0x00000001                ASSERT (((_vector_spacing == 0x0) || (SIZEOF (.vector_55) <= (_vector_spacing << 0x5))), function at exception vector 55 too large)

.vector_56      0x9fc01900        0x0
 *(.vector_56)
                0x00000001                ASSERT (((_vector_spacing == 0x0) || (SIZEOF (.vector_56) <= (_vector_spacing << 0x5))), function at exception vector 56 too large)

.vector_57      0x9fc01920        0x0
 *(.vector_57)
                0x00000001                ASSERT (((_vector_spacing == 0x0) || (SIZEOF (.vector_57) <= (_vector_spacing << 0x5))), function at exception vector 57 too large)

.vector_58      0x9fc01940        0x0
 *(.vector_58)
                0x00000001                ASSERT (((_vector_spacing == 0x0) || (SIZEOF (.vector_58) <= (_vector_spacing << 0x5))), function at exception vector 58 too large)

.vector_59      0x9fc01960        0x0
 *(.vector_59)
                0x00000001                ASSERT (((_vector_spacing == 0x0) || (SIZEOF (.vector_59) <= (_vector_spacing << 0x5))), function at exception vector 59 too large)

.vector_60      0x9fc01980        0x0
 *(.vector_60)
                0x00000001                ASSERT (((_vector_spacing == 0x0) || (SIZEOF (.vector_60) <= (_vector_spacing << 0x5))), function at exception vector 60 too large)

.vector_61      0x9fc019a0        0x0
 *(.vector_61)
                0x00000001                ASSERT (((_vector_spacing == 0x0) || (SIZEOF (.vector_61) <= (_vector_spacing << 0x5))), function at exception vector 61 too large)

.vector_62      0x9fc019c0        0x0
 *(.vector_62)
                0x00000001                ASSERT (((_vector_spacing == 0x0) || (SIZEOF (.vector_62) <= (_vector_spacing << 0x5))), function at exception vector 62 too large)

.vector_63      0x9fc019e0        0x0
 *(.vector_63)
                0x00000001                ASSERT (((_vector_spacing == 0x0) || (SIZEOF (.vector_63) <= (_vector_spacing << 0x5))), function at exception vector 63 too large)

.startup        0x9fc00490      0x1e0
 *(.startup)
 .startup       0x9fc00490      0x1e0 C:/Program Files (x86)/Microchip/MPLAB C32/bin/../lib/gcc/pic32mx/3.4.4/../../../../pic32mx/lib/crt0.o

.text           0x9d000000    0x24a54
                0x9d000000                _text_begin = .
 *(.text .stub .text.* .gnu.linkonce.t.*)
 .text          0x9d000000       0x18 C:/Program Files (x86)/Microchip/MPLAB C32/bin/../lib/gcc/pic32mx/3.4.4/../../../../pic32mx/lib/crt0.o
 .text          0x9d000018      0x4d0 build/default/production/_ext/1472/UARTConfig.o
                0x9d000018                DoUARTConfig
 .text          0x9d0004e8      0x320 build/default/production/_ext/1472/GenericTCPClient.o
                0x9d0004e8                GenericTCPClient
 .text          0x9d000808      0x210 build/default/production/_ext/1472/GenericTCPServer.o
                0x9d000808                GenericTCPServer
 .text          0x9d000a18        0x0 build/default/production/_ext/1472/LegacyHTTPApp.o
 .text          0x9d000a18        0x0 build/default/production/_ext/1472/PingDemo.o
 .text          0x9d000a18        0x0 build/default/production/_ext/1472/SMTPDemo.o
 .text          0x9d000a18        0x0 build/default/production/_ext/1472/BerkeleyUDPClientDemo.o
 .text          0x9d000a18        0x0 build/default/production/_ext/1472/BerkeleyTCPClientDemo.o
 .text          0x9d000a18        0x0 build/default/production/_ext/1472/BerkeleyTCPServerDemo.o
 .text          0x9d000a18        0x0 build/default/production/_ext/1295770447/UDPPerformanceTest.o
 .text          0x9d000a18      0x3a4 build/default/production/_ext/1295770447/Announce.o
                0x9d000a18                AnnounceIP
                0x9d000b78                DiscoveryTask
 .text          0x9d000dbc      0x710 build/default/production/_ext/1295770447/ARP.o
                0x9d000ec0                ARPInit
                0x9d000f50                ARPProcess
                0x9d001264                ARPResolve
                0x9d001344                ARPIsResolved
                0x9d001444                SwapARPPacket
 .text          0x9d0014cc       0xec build/default/production/_ext/1295770447/Delay.o
                0x9d0014cc                DelayMs
                0x9d001550                Delay10us
 .text          0x9d0015b8     0x16bc build/default/production/_ext/1295770447/DHCP.o
                0x9d0015b8                DHCPInit
                0x9d0016a4                DHCPDisable
                0x9d001714                DHCPEnable
                0x9d001778                DHCPIsEnabled
                0x9d0017b0                DHCPIsBound
                0x9d0017ec                DHCPStateChanged
                0x9d00185c                DHCPIsServerDetected
                0x9d001898                DHCPTask
 .text          0x9d002c74      0xac0 build/default/production/_ext/1295770447/DHCPs.o
                0x9d002c74                DHCPServerTask
 .text          0x9d003734      0xe3c build/default/production/_ext/1295770447/DNS.o
                0x9d003734                DNSBeginUsage
                0x9d00378c                DNSEndUsage
                0x9d003800                DNSResolve
                0x9d003894                DNSIsResolved
 .text          0x9d004570        0x0 build/default/production/_ext/1295770447/DynDNS.o
 .text          0x9d004570        0x0 build/default/production/_ext/1295770447/FTP.o
 .text          0x9d004570      0x76c build/default/production/_ext/1295770447/Hashes.o
                0x9d004570                HashAddData
                0x9d0045d0                MD5Initialize
                0x9d004644                MD5AddData
                0x9d004a00                MD5Calculate
 .text          0x9d004cdc     0x1304 build/default/production/_ext/1295770447/Helpers.o
                0x9d004cdc                GenerateRandomDWORD
                0x9d004f24                StringToIPAddress
                0x9d005224                Base64Decode
                0x9d005588                uitoa
                0x9d0056ac                ultoa
                0x9d0057d0                hexatob
                0x9d0058a4                btohexa_high
                0x9d005914                btohexa_low
                0x9d005984                stricmppgm2ram
                0x9d005b04                swaps
                0x9d005b50                swapl
                0x9d005bd8                CalcIPChecksum
                0x9d005cb8                CalcIPBufferChecksum
                0x9d005df0                strupr
                0x9d005e80                FormatNetBIOSName
                0x9d005f38                strnchr
 .text          0x9d005fe0     0x36e4 build/default/production/_ext/1295770447/HTTP2.o
                0x9d005fe0                HTTPPrint
                0x9d0064b0                HTTPPrint_
                0x9d006500                HTTPInit
                0x9d006600                HTTPServer
                0x9d008d78                HTTPURLDecode
                0x9d008f4c                HTTPGetArg
                0x9d009018                HTTPReadPostName
                0x9d009094                HTTPReadPostValue
                0x9d0094c4                HTTPIncFile
 .text          0x9d0096c4        0x0 build/default/production/_ext/1295770447/HTTP.o
 .text          0x9d0096c4      0x148 build/default/production/_ext/1295770447/ICMP.o
                0x9d0096c4                ICMPProcess
 .text          0x9d00980c      0x3bc build/default/production/_ext/1295770447/IP.o
                0x9d00980c                IPGetHeader
                0x9d0099e8                IPPutHeader
                0x9d009af4                IPSetRxBuffer
 .text          0x9d009bc8      0x48c build/default/production/_ext/1295770447/LCDBlocking.o
                0x9d009ca4                LCDInit
                0x9d009e24                LCDUpdate
                0x9d009ff8                LCDErase
 .text          0x9d00a054     0x1818 build/default/production/_ext/1295770447/MPFS2.o
                0x9d00a054                MPFSInit
                0x9d00a0dc                MPFSOpen
                0x9d00a414                MPFSOpenID
                0x9d00a5a8                MPFSClose
                0x9d00a614                MPFSGet
                0x9d00a860                MPFSGetArray
                0x9d00ab14                MPFSGetLong
                0x9d00ab68                MPFSSeek
                0x9d00b068                MPFSGetTimestamp
                0x9d00b134                MPFSGetMicrotime
                0x9d00b200                MPFSGetFlags
                0x9d00b2cc                MPFSGetSize
                0x9d00b398                MPFSGetBytesRem
                0x9d00b444                MPFSGetStartAddr
                0x9d00b514                MPFSGetEndAddr
                0x9d00b5f8                MPFSGetFilename
                0x9d00b708                MPFSGetPosition
                0x9d00b77c                MPFSGetID
 .text          0x9d00b86c        0x0 build/default/production/_ext/1295770447/MPFS.o
 .text          0x9d00b86c      0x6fc build/default/production/_ext/1295770447/NBNS.o
                0x9d00b86c                NBNSTask
 .text          0x9d00bf68      0x178 build/default/production/_ext/1295770447/Reboot.o
                0x9d00bf68                RebootTask
 .text          0x9d00c0e0        0x0 build/default/production/_ext/1295770447/SMTP.o
 .text          0x9d00c0e0        0x0 build/default/production/_ext/1295770447/SNMP.o
 .text          0x9d00c0e0        0x0 build/default/production/_ext/1295770447/SNTP.o
 .text          0x9d00c0e0      0x414 build/default/production/_ext/1295770447/StackTsk.o
                0x9d00c0e0                StackInit
                0x9d00c1a4                StackTask
                0x9d00c494                StackApplications
 .text          0x9d00c4f4     0x87c0 build/default/production/_ext/1295770447/TCP.o
                0x9d00c628                TCPInit
                0x9d00c928                TCPOpen
                0x9d00cd9c                TCPWasReset
                0x9d00ce48                TCPIsConnected
                0x9d00cea4                TCPDisconnect
                0x9d00d128                TCPClose
                0x9d00d1a0                TCPGetRemoteInfo
                0x9d00d21c                TCPFlush
                0x9d00d2a4                TCPIsPutReady
                0x9d00d498                TCPPut
                0x9d00d7ec                TCPPutArray
                0x9d00dc70                TCPPutString
                0x9d00dcd4                TCPGetTxFIFOFull
                0x9d00dd88                TCPDiscard
                0x9d00de30                TCPIsGetReady
                0x9d00dfcc                TCPGet
                0x9d00e254                TCPGetArray
                0x9d00e634                TCPGetRxFIFOFree
                0x9d00e6e4                TCPPeekArray
                0x9d00e9a8                TCPPeek
                0x9d00ea04                TCPFindArrayEx
                0x9d00f020                TCPFindEx
                0x9d00f094                TCPTick
                0x9d0100b8                TCPProcess
                0x9d014388                TCPAdjustFIFOSize
 .text          0x9d014cb4      0x5b0 build/default/production/_ext/1295770447/TCPPerformanceTest.o
                0x9d014cb4                TCPPerformanceTask
                0x9d014cec                TCPTXPerformanceTask
                0x9d015030                TCPRXPerformanceTask
 .text          0x9d015264      0xb70 build/default/production/_ext/1295770447/Telnet.o
                0x9d015264                TelnetTask
 .text          0x9d015dd4        0x0 build/default/production/_ext/1295770447/TFTPc.o
 .text          0x9d015dd4      0x304 build/default/production/_ext/1295770447/Tick.o
                0x9d015dd4                TickInit
                0x9d015f1c                TickGet
                0x9d015f50                TickGetDiv256
                0x9d015fa4                TickGetDiv64K
                0x9d015ff8                TickConvertToMilliseconds
                0x9d016050                _T1Interrupt
 .text          0x9d0160d8        0x0 build/default/production/_ext/1295770447/UART2TCPBridge.o
 .text          0x9d0160d8       0xcc build/default/production/_ext/1295770447/UART.o
                0x9d0160d8                ReadStringUART
 .text          0x9d0161a4      0xc88 build/default/production/_ext/1295770447/UDP.o
                0x9d0161a4                UDPInit
                0x9d016210                UDPTask
                0x9d016238                UDPOpen
                0x9d01638c                UDPClose
                0x9d016418                UDPSetTxBuffer
                0x9d016464                UDPSetRxBuffer
                0x9d0164b4                UDPIsPutReady
                0x9d016548                UDPPut
                0x9d0165d8                UDPPutArray
                0x9d01667c                UDPPutString
                0x9d0166d0                UDPFlush
                0x9d016878                UDPIsGetReady
                0x9d016914                UDPGet
                0x9d0169a4                UDPGetArray
                0x9d016a70                UDPDiscard
                0x9d016acc                UDPProcess
 .text          0x9d016e2c        0x0 build/default/production/_ext/1295770447/BerkeleyAPI.o
 .text          0x9d016e2c        0x0 build/default/production/_ext/1472/MPFSImg2.o
 .text          0x9d016e2c        0x0 build/default/production/_ext/1295770447/SSL.o
 .text          0x9d016e2c        0x0 build/default/production/_ext/1295770447/ARCFOUR.o
 .text          0x9d016e2c        0x0 build/default/production/_ext/1295770447/BigInt.o
 .text          0x9d016e2c        0x0 build/default/production/_ext/1295770447/BigInt_helper_C32.o
 .text          0x9d016e2c        0x0 build/default/production/_ext/1295770447/Random.o
 .text          0x9d016e2c        0x0 build/default/production/_ext/1295770447/RSA.o
 .text          0x9d016e2c      0xdc4 build/default/production/_ext/1295770447/AutoIP.o
                0x9d016e2c                AutoIPInit
                0x9d016ed4                AutoIPIsConfigured
                0x9d016f0c                AutoIPConfigIsInProgress
                0x9d016f48                AutoIPTasks
                0x9d017894                AutoIPConflict
                0x9d017a2c                AutoIPDisable
                0x9d017ac8                AutoIPEnable
                0x9d017b14                AutoIPIsDisabled
                0x9d017b4c                AutoIPRandSeed
                0x9d017b88                AutoIPRand
 .text          0x9d017bf0      0x8d8 build/default/production/_ext/1496989791/ZGDriverRaw.o
                0x9d017bf0                ZGRawMove
                0x9d017d4c                ZGRawSetIndex
                0x9d017e50                ZGRawGetIndex
                0x9d017ec4                ZGRawGetByte
                0x9d017fbc                ZGRawSetByte
                0x9d0180b4                ZGRawSetByteROM
                0x9d0182b4                ZGSendRAWDataFrame
                0x9d0183b0                ZGMACIFService
 .text          0x9d0184c8        0x0 build/default/production/_ext/1496989791/ZGAccessApp.o
 .text          0x9d0184c8       0x64 build/default/production/_ext/1496989791/ZGAccessSys.o
                0x9d0184c8                ZGErrorHandler
 .text          0x9d01852c      0x2e0 build/default/production/_ext/1496989791/ZGEint.o
                0x9d01852c                zgHalIsEintDisabled
                0x9d018558                zgHalIsEintPending
                0x9d0185b0                zgHALEintEnable
                0x9d0185fc                zgHALEintDisable
                0x9d018620                zgHALEintInit
                0x9d0186e0                _T2Interrupt
 .text          0x9d01880c       0x24 build/default/production/_ext/1496989791/ZGHWReset.o
                0x9d01880c                MCHPHardwareResetZG2100
 .text          0x9d018830      0x730 build/default/production/_ext/1496989791/ZGSpi.o
                0x9d018830                zgHALSpiInit
                0x9d01888c                zgHALSpiTxRx
                0x9d018cf8                SpiSetTxPreBufPtr
                0x9d018d28                SpiSetTxPreLen
                0x9d018d60                SpiSetTxBufPtr
                0x9d018da0                SpiSetTxRomBufPtr
                0x9d018de0                SpiSetTxBufLen
                0x9d018e18                SpiSetRxPreBufPtr
                0x9d018e4c                SpiSetRxPreBufLen
                0x9d018e84                SpiSetRxBufPtr
                0x9d018eb8                SpiSetRxBufLen
                0x9d018ef0                SpiSetRxExcessLen
                0x9d018f28                SpiSetSuppressDoneHandlerCall
 .text          0x9d018f60     0x1c14 build/default/production/_ext/1496989791/ZG2100.o
                0x9d0193c8                ZGPeriodicGratuitousArp
                0x9d0194b0                MACProcess
                0x9d019560                ZGGetTCBSize
                0x9d019584                MACInit
                0x9d019648                MACIsLinked
                0x9d019684                MACIsTxReady
                0x9d019774                ZGisTxMgmtReady
                0x9d019814                ZGFreeMgmtTx
                0x9d0198a0                ZGSendRAWManagementFrame
                0x9d019900                ZGRawGetMgmtRxBuffer
                0x9d0199b8                ZGSetRawRxMgmtInProgress
                0x9d0199f8                ZGisRawRxMgmtInProgress
                0x9d019a1c                MACDiscardRx
                0x9d019a44                MACGetFreeRxSize
                0x9d019ab0                MACGetHeader
                0x9d019d84                MACPutHeader
                0x9d019e40                MACFlush
                0x9d01a058                MACSetReadPtrInRx
                0x9d01a0a0                MACSetWritePtr
                0x9d01a0ec                MACSetReadPtr
                0x9d01a138                MACCalcRxChecksum
                0x9d01a1c4                MACMemCopyAsync
                0x9d01a79c                MACIsMemCopyDone
                0x9d01a7c0                MACGet
                0x9d01a82c                MACGetArray
                0x9d01a908                MACPut
                0x9d01a980                MACPutArray
                0x9d01a9fc                MACPowerDown
                0x9d01aa1c                MACPowerUp
                0x9d01aa3c                ZGRawSendUntamperedData
 .text          0x9d01ab74     0x1198 build/default/production/_ext/1496989791/ZGDriverCom.o
                0x9d01ac2c                ChangeLowPowerMode
                0x9d01acf0                Read8BitZGRegister
                0x9d01ad48                Read16BitZGRegister
                0x9d01adbc                ReadZGArray
                0x9d01ae8c                Write8BitZGRegister
                0x9d01af00                Write16BitZGRegister
                0x9d01af88                WriteZGArray
                0x9d01b054                WriteZGROMArray
                0x9d01b750                ZGPrvComFifoOperation
                0x9d01b780                zgDriverEintHandler
                0x9d01b8bc                zgDriverSpiTxRxDoneHandler
                0x9d01b8dc                ZGPrvComInit
                0x9d01b9dc                ZGPrvComStateMachine
                0x9d01bcd4                ZGPrvComSetLowPowerMode
 .text          0x9d01bd0c      0x5a4 build/default/production/_ext/1496989791/ZGDriverIFace.o
                0x9d01bd0c                SendManagementMsg
                0x9d01be0c                ZGSignalDriver
                0x9d01be30                ZGInit
                0x9d01be64                ZGScan
                0x9d01bea0                ZGJoin
                0x9d01bedc                ZGAuth
                0x9d01bf18                ZGAssoc
                0x9d01bf54                ZGAdhocStart
                0x9d01bf90                ZGAdhocConnect
                0x9d01bfcc                ZGDisconnect
                0x9d01c008                ZGGetParam
                0x9d01c080                ZGSetParam
                0x9d01c158                ZGSetPMKKey
                0x9d01c194                ZGSetWEPKeys
                0x9d01c1d0                ZGSetPowerSaveMode
                0x9d01c22c                ZGCalcPSK
                0x9d01c268                ZGDataSendUntampered
 .text          0x9d01c2b0      0x690 build/default/production/_ext/1496989791/ZGDriverMac.o
                0x9d01c2b0                ZGPrvMacInit
                0x9d01c5d0                ZGProcess
                0x9d01c710                ZGPrvMacOpComplete
                0x9d01c910                ZGPrvMacReadReady
 .text          0x9d01c940      0xe54 build/default/production/_ext/1496989791/ZGWifiMgrII.o
                0x9d01c940                WiFiScanNextState
                0x9d01ca18                WiFiDisconnNextState
                0x9d01cb44                WiFiMainConnNextState
                0x9d01cbf4                WiFiDomNextState
                0x9d01ccf0                WiFiScanRequest
                0x9d01cd50                WiFiConnLostRequest
                0x9d01cda0                WiFiJoinRequest
                0x9d01ce84                WiFiAuthRequest
                0x9d01cf48                WiFiAssocRequest
                0x9d01d194                WiFiDisconnRequest
                0x9d01d2f4                WiFiJoinComplete
                0x9d01d4d8                WiFiAuthComplete
                0x9d01d610                WiFiAssocComplete
 .text          0x9d01d794        0x0 build/default/production/_ext/1496989791/ZGAdhocMgrII.o
 .text          0x9d01d794      0xf7c build/default/production/_ext/1496989791/ZGCommon.o
                0x9d01dafc                buildScanRequest
                0x9d01dbc8                genericIdleNextState
                0x9d01dc58                genericThrottleTableNext
                0x9d01dcf0                genericSetMacAddrRequest
                0x9d01dd94                genericSetDomRequest
                0x9d01dde4                genericCalcPSKRequest
                0x9d01dec0                genericInstallWEPKeyRequest
                0x9d01df94                genericInstallPSKRequest
                0x9d01e04c                genericThrottleTableRequest
                0x9d01e09c                genericScanComplete
                0x9d01e1b0                genericGetChipVerComplete
                0x9d01e264                genericComplete
                0x9d01e32c                genericCalcPSKComplete
                0x9d01e424                genericSetMacAddrComplete
                0x9d01e4b4                genericGetMacAddrComplete
                0x9d01e56c                genericSetDomComplete
                0x9d01e5fc                genericIndicate
 .text          0x9d01e710      0xa04 build/default/production/_ext/1496989791/ZGLibCfg.o
                0x9d01e710                ZGLibCfgSetWpaPassPhrase
                0x9d01e77c                ZGLibCfgSetWpaPSK
                0x9d01e7c8                ZGLibCfgSetWEPKey
                0x9d01e850                ZGLibCfgSetMacAddress
                0x9d01e8d4                ZGLibCfgSetSSID
                0x9d01ea38                ZGLibCfgSetRfChannelList
                0x9d01eb94                ZGLibCfgSetAllRfChannels
                0x9d01ec50                ZGLibCfgClearAllRfChannels
                0x9d01ec94                dataCfrmRequest
                0x9d01ecf0                dataCfrmComplete
                0x9d01ed5c                ZGLibCfgSetDataCfrm
                0x9d01edbc                pwrStateRequest
                0x9d01ee80                pwrStateComplete
                0x9d01ef18                ZGLibCfgSetPwrMgmtState
                0x9d01f020                ZGLibCfgTempRestorePwrState
                0x9d01f098                ZGLibCfgTempDisablePwrState
 .text          0x9d01f114     0x11d0 build/default/production/_ext/1496989791/ZGLibIface.o
                0x9d01f114                zg_indicate_dispatch
                0x9d01f1a8                ZGLibLoadScanBuffer
                0x9d01f23c                ZGLibLoadConfirmBuffer
                0x9d01f734                ZGLibInitialize
                0x9d01f7d8                ZGLibSetDataCfrm
                0x9d01f834                ZGLibScan
                0x9d01f8d0                ZGLibCalcPSK
                0x9d01f92c                ZGLibInstallWEPKeys
                0x9d01f988                ZGLibInstallPSK
                0x9d01f9e4                ZGLibJoin
                0x9d01fa40                ZGLibAuth
                0x9d01fa9c                ZGLibAssoc
                0x9d01faf8                ZGLibDisconnect
                0x9d01fb54                ZGLibStart
                0x9d01fbb0                ZGLibConnect
                0x9d01fc0c                ZGLibGetChipVersion
                0x9d01fc68                ZGLibGetMacAddr
                0x9d01fcc4                ZGLibSetThrottleTable
                0x9d01fd20                ZGLibSetMacAddr
                0x9d01fd7c                ZGLibSetDom
                0x9d01fdd8                ZGLibSetConnLost
                0x9d01fe34                ZGLibGetRTS
                0x9d01fe90                ZGLibSetRTS
                0x9d01feec                ZGLibGetRadioState
                0x9d01ff48                ZGLibSetRadioState
                0x9d01ffa4                ZGLibSetPwrSaveMode
                0x9d020000                ZGLibConfirm
                0x9d020064                ZGLibEnableIndicate
                0x9d020150                ZGLibIndicate
                0x9d020274                ZGLibManagementRequest
 .text          0x9d0202e4      0x4d4 build/default/production/_ext/1496989791/ZGLinkMgrII.o
                0x9d0202e4                ZGLinkMgrSetMode
                0x9d0203fc                ZGLinkMgrGetMode
                0x9d020424                ZGLinkMgrGetNextMode
                0x9d020450                ZGLinkMgrSetNextMode
                0x9d020484                ZGLinkMgrIsConnected
                0x9d0204b0                ZGLinkMgrInit
                0x9d020508                ZGLinkMgr
 .text          0x9d0207b8        0x0 build/default/production/_ext/1496989791/ZGEasyConfig.o
 .text          0x9d0207b8      0xabc build/default/production/_ext/1472/MainDemo.o
                0x9d0207b8                _general_exception_handler
                0x9d0207e4                main
                0x9d0209d0                DisplayIPValue
 .text          0x9d021274     0x2570 build/default/production/_ext/1472/CustomHTTPApp.o
                0x9d021274                HTTPNeedsAuth
                0x9d021304                HTTPCheckAuth
                0x9d021384                HTTPExecuteGet
                0x9d0216ec                HTTPExecutePost
                0x9d022430                HTTPPrint_builddate
                0x9d0224d8                HTTPPrint_version
                0x9d02252c                HTTPPrint_btn
                0x9d02267c                HTTPPrint_led
                0x9d0227f8                HTTPPrint_ledSelected
                0x9d022988                HTTPPrint_pot
                0x9d022a18                HTTPPrint_lcdtext
                0x9d022c24                HTTPPrint_hellomsg
                0x9d022cc8                HTTPPrint_cookiename
                0x9d022d74                HTTPPrint_uploadedmd5
                0x9d022f68                HTTPPrintIP
                0x9d023038                HTTPPrint_config_hostname
                0x9d02308c                HTTPPrint_config_dhcpchecked
                0x9d0230fc                HTTPPrint_config_ip
                0x9d023144                HTTPPrint_config_gw
                0x9d02318c                HTTPPrint_config_subnet
                0x9d0231d4                HTTPPrint_config_dns1
                0x9d02321c                HTTPPrint_config_dns2
                0x9d023264                HTTPPrint_config_mac
                0x9d0233cc                HTTPPrint_read_comm
                0x9d0233f4                HTTPPrint_write_comm
                0x9d02341c                HTTPPrint_reboot
                0x9d023434                HTTPPrint_rebootaddr
                0x9d023488                HTTPPrint_ddns_user
                0x9d0234a8                HTTPPrint_ddns_pass
                0x9d0234c8                HTTPPrint_ddns_host
                0x9d0234e8                HTTPPrint_ddns_service
                0x9d023510                HTTPPrint_ddns_status
                0x9d023564                HTTPPrint_ddns_status_msg
                0x9d02360c                HTTPPrint_smtps_en
                0x9d023660                HTTPPrint_snmp_en
                0x9d0236b4                HTTPPrint_status_ok
                0x9d02374c                HTTPPrint_status_fail
 .text          0x9d0237e4        0x0 build/default/production/_ext/1472/CustomSNMPApp.o
 .text          0x9d0237e4        0x0 build/default/production/_ext/1472/CustomSSLCert.o
 .text          0x9d0237e4      0x47c C:/Program Files (x86)/Microchip/MPLAB C32/bin/../lib/gcc/pic32mx/3.4.4\libgcc.a(_udivdi3.o)
                0x9d0237e4                __udivdi3
 .text          0x9d023c60       0x98 C:/Program Files (x86)/Microchip/MPLAB C32/bin/../lib/gcc/pic32mx/3.4.4/../../../../pic32mx/lib\libc.a(memcmp.o)
                0x9d023c60                memcmp
 .text          0x9d023cf8      0x168 C:/Program Files (x86)/Microchip/MPLAB C32/bin/../lib/gcc/pic32mx/3.4.4/../../../../pic32mx/lib\libc.a(memcpy.o)
                0x9d023cf8                memcpy
 .text          0x9d023e60       0xa8 C:/Program Files (x86)/Microchip/MPLAB C32/bin/../lib/gcc/pic32mx/3.4.4/../../../../pic32mx/lib\libc.a(memset.o)
                0x9d023e60                memset
 .text          0x9d023f08      0x120 C:/Program Files (x86)/Microchip/MPLAB C32/bin/../lib/gcc/pic32mx/3.4.4/../../../../pic32mx/lib\libc.a(strcmp.o)
                0x9d023f08                strcmp
 .text          0x9d024028      0x1a0 C:/Program Files (x86)/Microchip/MPLAB C32/bin/../lib/gcc/pic32mx/3.4.4/../../../../pic32mx/lib\libc.a(strcpy.o)
                0x9d024028                strcpy
 .text          0x9d0241c8      0x168 C:/Program Files (x86)/Microchip/MPLAB C32/bin/../lib/gcc/pic32mx/3.4.4/../../../../pic32mx/lib\libc.a(strlen.o)
                0x9d0241c8                strlen
 .text          0x9d024330        0x0 C:/Program Files (x86)/Microchip/MPLAB C32/bin/../lib/gcc/pic32mx/3.4.4/../../../../pic32mx/lib\libc.a(general-exception.o)
 .text.general_exception
                0x9d024330       0xd0 C:/Program Files (x86)/Microchip/MPLAB C32/bin/../lib/gcc/pic32mx/3.4.4/../../../../pic32mx/lib\libc.a(general-exception.o)
                0x9d024330                _general_exception_context
 .text          0x9d024400        0x0 C:/Program Files (x86)/Microchip/MPLAB C32/bin/../lib/gcc/pic32mx/3.4.4/../../../../pic32mx/lib\libc.a(strncmp.o)
 .text.strncmp  0x9d024400       0xdc C:/Program Files (x86)/Microchip/MPLAB C32/bin/../lib/gcc/pic32mx/3.4.4/../../../../pic32mx/lib\libc.a(strncmp.o)
                0x9d024400                strncmp
 .text          0x9d0244dc        0x0 C:/Program Files (x86)/Microchip/MPLAB C32/bin/../lib/gcc/pic32mx/3.4.4/../../../../pic32mx/lib\libc.a(exit.o)
 .text.exit     0x9d0244dc       0x10 C:/Program Files (x86)/Microchip/MPLAB C32/bin/../lib/gcc/pic32mx/3.4.4/../../../../pic32mx/lib\libc.a(exit.o)
                0x9d0244dc                exit
 .text          0x9d0244ec        0x0 C:/Program Files (x86)/Microchip/MPLAB C32/bin/../lib/gcc/pic32mx/3.4.4/../../../../pic32mx/lib\libc.a(rand.o)
 .text.rand_r   0x9d0244ec       0x28 C:/Program Files (x86)/Microchip/MPLAB C32/bin/../lib/gcc/pic32mx/3.4.4/../../../../pic32mx/lib\libc.a(rand.o)
                0x9d0244ec                rand_r
 .text.rand     0x9d024514       0x48 C:/Program Files (x86)/Microchip/MPLAB C32/bin/../lib/gcc/pic32mx/3.4.4/../../../../pic32mx/lib\libc.a(rand.o)
                0x9d024514                rand
 .text.srand    0x9d02455c       0x44 C:/Program Files (x86)/Microchip/MPLAB C32/bin/../lib/gcc/pic32mx/3.4.4/../../../../pic32mx/lib\libc.a(rand.o)
                0x9d02455c                srand
 .text          0x9d0245a0        0x0 C:/Program Files (x86)/Microchip/MPLAB C32/bin/../lib/gcc/pic32mx/3.4.4/../../../../pic32mx/lib\libc.a(atol.o)
 .text.atol     0x9d0245a0        0xc C:/Program Files (x86)/Microchip/MPLAB C32/bin/../lib/gcc/pic32mx/3.4.4/../../../../pic32mx/lib\libc.a(atol.o)
                0x9d0245a0                atol
 .text          0x9d0245ac        0x0 C:/Program Files (x86)/Microchip/MPLAB C32/bin/../lib/gcc/pic32mx/3.4.4/../../../../pic32mx/lib\libc.a(atoi.o)
 .text.atoi     0x9d0245ac        0xc C:/Program Files (x86)/Microchip/MPLAB C32/bin/../lib/gcc/pic32mx/3.4.4/../../../../pic32mx/lib\libc.a(atoi.o)
                0x9d0245ac                atoi
 .text          0x9d0245b8        0x0 C:/Program Files (x86)/Microchip/MPLAB C32/bin/../lib/gcc/pic32mx/3.4.4/../../../../pic32mx/lib\libc.a(strtol.o)
 .text.strtol   0x9d0245b8      0x1f0 C:/Program Files (x86)/Microchip/MPLAB C32/bin/../lib/gcc/pic32mx/3.4.4/../../../../pic32mx/lib\libc.a(strtol.o)
                0x9d0245b8                strtol
 .text          0x9d0247a8        0x0 C:/Program Files (x86)/Microchip/MPLAB C32/bin/../lib/gcc/pic32mx/3.4.4/../../../../pic32mx/lib\libc.a(stubs.o)
 .text._weak_pthread_mutex_init
                0x9d0247a8        0x8 C:/Program Files (x86)/Microchip/MPLAB C32/bin/../lib/gcc/pic32mx/3.4.4/../../../../pic32mx/lib\libc.a(stubs.o)
                0x9d0247a8                pthread_mutex_init
                0x9d0247a8                _weak_pthread_mutex_init
 .text._weak_pthread_mutex_destroy
                0x9d0247b0        0x8 C:/Program Files (x86)/Microchip/MPLAB C32/bin/../lib/gcc/pic32mx/3.4.4/../../../../pic32mx/lib\libc.a(stubs.o)
                0x9d0247b0                pthread_mutex_destroy
                0x9d0247b0                _weak_pthread_mutex_destroy
 .text._weak_pthread_mutex_lock
                0x9d0247b8        0x8 C:/Program Files (x86)/Microchip/MPLAB C32/bin/../lib/gcc/pic32mx/3.4.4/../../../../pic32mx/lib\libc.a(stubs.o)
                0x9d0247b8                pthread_mutex_lock
                0x9d0247b8                _weak_pthread_mutex_lock
 .text._weak_pthread_mutex_trylock
                0x9d0247c0        0x8 C:/Program Files (x86)/Microchip/MPLAB C32/bin/../lib/gcc/pic32mx/3.4.4/../../../../pic32mx/lib\libc.a(stubs.o)
                0x9d0247c0                pthread_mutex_trylock
                0x9d0247c0                _weak_pthread_mutex_trylock
 .text._weak_pthread_mutex_unlock
                0x9d0247c8        0x8 C:/Program Files (x86)/Microchip/MPLAB C32/bin/../lib/gcc/pic32mx/3.4.4/../../../../pic32mx/lib\libc.a(stubs.o)
                0x9d0247c8                pthread_mutex_unlock
                0x9d0247c8                _weak_pthread_mutex_unlock
 .text._weak_pthread_mutex_setname_np
                0x9d0247d0        0x8 C:/Program Files (x86)/Microchip/MPLAB C32/bin/../lib/gcc/pic32mx/3.4.4/../../../../pic32mx/lib\libc.a(stubs.o)
                0x9d0247d0                _weak_pthread_mutex_setname_np
                0x9d0247d0                pthread_mutex_setname_np
 .text._weak_pthread_mutexattr_init
                0x9d0247d8        0x8 C:/Program Files (x86)/Microchip/MPLAB C32/bin/../lib/gcc/pic32mx/3.4.4/../../../../pic32mx/lib\libc.a(stubs.o)
                0x9d0247d8                pthread_mutexattr_init
                0x9d0247d8                _weak_pthread_mutexattr_init
 .text._weak_pthread_mutexattr_destroy
                0x9d0247e0        0x8 C:/Program Files (x86)/Microchip/MPLAB C32/bin/../lib/gcc/pic32mx/3.4.4/../../../../pic32mx/lib\libc.a(stubs.o)
                0x9d0247e0                _weak_pthread_mutexattr_destroy
                0x9d0247e0                pthread_mutexattr_destroy
 .text._weak_pthread_mutexattr_setname_np
                0x9d0247e8        0x8 C:/Program Files (x86)/Microchip/MPLAB C32/bin/../lib/gcc/pic32mx/3.4.4/../../../../pic32mx/lib\libc.a(stubs.o)
                0x9d0247e8                pthread_mutexattr_setname_np
                0x9d0247e8                _weak_pthread_mutexattr_setname_np
 .text._weak_pthread_mutexattr_settype_np
                0x9d0247f0        0x8 C:/Program Files (x86)/Microchip/MPLAB C32/bin/../lib/gcc/pic32mx/3.4.4/../../../../pic32mx/lib\libc.a(stubs.o)
                0x9d0247f0                pthread_mutexattr_settype_np
                0x9d0247f0                _weak_pthread_mutexattr_settype_np
 .text._weak_pthread_sysconf_np
                0x9d0247f8        0x8 C:/Program Files (x86)/Microchip/MPLAB C32/bin/../lib/gcc/pic32mx/3.4.4/../../../../pic32mx/lib\libc.a(stubs.o)
                0x9d0247f8                pthread_sysconf_np
                0x9d0247f8                _weak_pthread_sysconf_np
 .text._weak_pthread_sigdisable_np
                0x9d024800        0x8 C:/Program Files (x86)/Microchip/MPLAB C32/bin/../lib/gcc/pic32mx/3.4.4/../../../../pic32mx/lib\libc.a(stubs.o)
                0x9d024800                pthread_sigdisable_np
                0x9d024800                _weak_pthread_sigdisable_np
 .text._weak_pthread_sigrestore_np
                0x9d024808        0x8 C:/Program Files (x86)/Microchip/MPLAB C32/bin/../lib/gcc/pic32mx/3.4.4/../../../../pic32mx/lib\libc.a(stubs.o)
                0x9d024808                _weak_pthread_sigrestore_np
                0x9d024808                pthread_sigrestore_np
 .text._weak__pthread_cleanup_push
                0x9d024810        0x8 C:/Program Files (x86)/Microchip/MPLAB C32/bin/../lib/gcc/pic32mx/3.4.4/../../../../pic32mx/lib\libc.a(stubs.o)
                0x9d024810                _pthread_cleanup_push
                0x9d024810                _weak__pthread_cleanup_push
 .text._weak__pthread_cleanup_pop
                0x9d024818        0x8 C:/Program Files (x86)/Microchip/MPLAB C32/bin/../lib/gcc/pic32mx/3.4.4/../../../../pic32mx/lib\libc.a(stubs.o)
                0x9d024818                _weak__pthread_cleanup_pop
                0x9d024818                _pthread_cleanup_pop
 .text._weak__pthread_cleanup_push_defer
                0x9d024820        0x8 C:/Program Files (x86)/Microchip/MPLAB C32/bin/../lib/gcc/pic32mx/3.4.4/../../../../pic32mx/lib\libc.a(stubs.o)
                0x9d024820                _pthread_cleanup_push_defer
                0x9d024820                _weak__pthread_cleanup_push_defer
 .text._weak__pthread_cleanup_pop_restore
                0x9d024828        0x8 C:/Program Files (x86)/Microchip/MPLAB C32/bin/../lib/gcc/pic32mx/3.4.4/../../../../pic32mx/lib\libc.a(stubs.o)
                0x9d024828                _weak__pthread_cleanup_pop_restore
                0x9d024828                _pthread_cleanup_pop_restore
 .text._weak_pthread_once
                0x9d024830       0x2c C:/Program Files (x86)/Microchip/MPLAB C32/bin/../lib/gcc/pic32mx/3.4.4/../../../../pic32mx/lib\libc.a(stubs.o)
                0x9d024830                pthread_once
                0x9d024830                _pthread_once
                0x9d024830                _weak_pthread_once
 .text._weak_pthread_key_create
                0x9d02485c        0x8 C:/Program Files (x86)/Microchip/MPLAB C32/bin/../lib/gcc/pic32mx/3.4.4/../../../../pic32mx/lib\libc.a(stubs.o)
                0x9d02485c                _weak_pthread_key_create
                0x9d02485c                pthread_key_create
 .text._weak_pthread_setspecific
                0x9d024864        0x8 C:/Program Files (x86)/Microchip/MPLAB C32/bin/../lib/gcc/pic32mx/3.4.4/../../../../pic32mx/lib\libc.a(stubs.o)
                0x9d024864                pthread_setspecific
                0x9d024864                _weak_pthread_setspecific
 .text._weak_pthread_getspecific
                0x9d02486c        0x8 C:/Program Files (x86)/Microchip/MPLAB C32/bin/../lib/gcc/pic32mx/3.4.4/../../../../pic32mx/lib\libc.a(stubs.o)
                0x9d02486c                _weak_pthread_getspecific
                0x9d02486c                pthread_getspecific
 .text._weak__libc_private_storage
                0x9d024874        0x8 C:/Program Files (x86)/Microchip/MPLAB C32/bin/../lib/gcc/pic32mx/3.4.4/../../../../pic32mx/lib\libc.a(stubs.o)
                0x9d024874                _weak__libc_private_storage
                0x9d024874                _libc_private_storage
 .text          0x9d02487c        0x0 C:/Program Files (x86)/Microchip/MPLAB C32/bin/../lib/gcc/pic32mx/3.4.4/../../../../pic32mx/lib\libc.a(default-bootstrap-exception-handler.o)
 .text._bootstrap_exception_handler
                0x9d02487c        0x8 C:/Program Files (x86)/Microchip/MPLAB C32/bin/../lib/gcc/pic32mx/3.4.4/../../../../pic32mx/lib\libc.a(default-bootstrap-exception-handler.o)
                0x9d02487c                _bootstrap_exception_handler
 .text          0x9d024884        0x0 C:/Program Files (x86)/Microchip/MPLAB C32/bin/../lib/gcc/pic32mx/3.4.4/../../../../pic32mx/lib\libc.a(default-on-reset.o)
 .text._on_reset
                0x9d024884        0x8 C:/Program Files (x86)/Microchip/MPLAB C32/bin/../lib/gcc/pic32mx/3.4.4/../../../../pic32mx/lib\libc.a(default-on-reset.o)
                0x9d024884                _on_reset
 .text          0x9d02488c        0x0 C:/Program Files (x86)/Microchip/MPLAB C32/bin/../lib/gcc/pic32mx/3.4.4/../../../../pic32mx/lib\libc.a(default-on-bootstrap.o)
 .text._on_bootstrap
                0x9d02488c        0x8 C:/Program Files (x86)/Microchip/MPLAB C32/bin/../lib/gcc/pic32mx/3.4.4/../../../../pic32mx/lib\libc.a(default-on-bootstrap.o)
                0x9d02488c                _on_bootstrap
 .text          0x9d024894       0x18 C:/Program Files (x86)/Microchip/MPLAB C32/bin/../lib/gcc/pic32mx/3.4.4/../../../../pic32mx/lib\libc.a(default-nmi-handler.o)
                0x9d024894                _nmi_handler
 .text          0x9d0248ac        0x0 C:/Program Files (x86)/Microchip/MPLAB C32/bin/../lib/gcc/pic32mx/3.4.4/../../../../pic32mx/lib\libc.a(_exit.o)
 .text._exit    0x9d0248ac        0x8 C:/Program Files (x86)/Microchip/MPLAB C32/bin/../lib/gcc/pic32mx/3.4.4/../../../../pic32mx/lib\libc.a(_exit.o)
                0x9d0248ac                _exit
 .text          0x9d0248b4        0x0 C:/Program Files (x86)/Microchip/MPLAB C32/bin/../lib/gcc/pic32mx/3.4.4/../../../../pic32mx/lib\libc.a(ctype.o)
 .text          0x9d0248b4        0x0 C:/Program Files (x86)/Microchip/MPLAB C32/bin/../lib/gcc/pic32mx/3.4.4/../../../../pic32mx/lib\libc.a(errno.o)
 .text          0x9d0248b4        0x0 C:/Program Files (x86)/Microchip/MPLAB C32/bin/../lib/gcc/pic32mx/3.4.4/../../../../pic32mx/lib\libmchp_peripheral_32MX460F512L.a(soft_reset_lib.o)
 .text.SoftReset
                0x9d0248b4       0x78 C:/Program Files (x86)/Microchip/MPLAB C32/bin/../lib/gcc/pic32mx/3.4.4/../../../../pic32mx/lib\libmchp_peripheral_32MX460F512L.a(soft_reset_lib.o)
                0x9d0248b4                SoftReset
 .text          0x9d02492c        0x0 C:/Program Files (x86)/Microchip/MPLAB C32/bin/../lib/gcc/pic32mx/3.4.4/../../../../pic32mx/lib\libmchp_peripheral_32MX460F512L.a(pcache.o)
 .text.CheKseg0CacheOff
                0x9d02492c       0x18 C:/Program Files (x86)/Microchip/MPLAB C32/bin/../lib/gcc/pic32mx/3.4.4/../../../../pic32mx/lib\libmchp_peripheral_32MX460F512L.a(pcache.o)
                0x9d02492c                CheKseg0CacheOff
 .text.CheKseg0CacheOn
                0x9d024944       0x18 C:/Program Files (x86)/Microchip/MPLAB C32/bin/../lib/gcc/pic32mx/3.4.4/../../../../pic32mx/lib\libmchp_peripheral_32MX460F512L.a(pcache.o)
                0x9d024944                CheKseg0CacheOn
 .text          0x9d02495c        0x0 C:/Program Files (x86)/Microchip/MPLAB C32/bin/../lib/gcc/pic32mx/3.4.4/../../../../pic32mx/lib\libmchp_peripheral_32MX460F512L.a(int_disable_interrupts_lib.o)
 .text.INTDisableInterrupts
                0x9d02495c        0x8 C:/Program Files (x86)/Microchip/MPLAB C32/bin/../lib/gcc/pic32mx/3.4.4/../../../../pic32mx/lib\libmchp_peripheral_32MX460F512L.a(int_disable_interrupts_lib.o)
                0x9d02495c                INTDisableInterrupts
 .text          0x9d024964        0x0 C:/Program Files (x86)/Microchip/MPLAB C32/bin/../lib/gcc/pic32mx/3.4.4/../../../../pic32mx/lib\libmchp_peripheral_32MX460F512L.a(int_restore_interrupts_lib.o)
 .text.INTRestoreInterrupts
                0x9d024964       0x1c C:/Program Files (x86)/Microchip/MPLAB C32/bin/../lib/gcc/pic32mx/3.4.4/../../../../pic32mx/lib\libmchp_peripheral_32MX460F512L.a(int_restore_interrupts_lib.o)
                0x9d024964                INTRestoreInterrupts
 .text          0x9d024980        0x0 C:/Program Files (x86)/Microchip/MPLAB C32/bin/../lib/gcc/pic32mx/3.4.4/../../../../pic32mx/lib\libmchp_peripheral_32MX460F512L.a(int_enable_mv_int_lib.o)
 .text.INTEnableSystemMultiVectoredInt
                0x9d024980       0x34 C:/Program Files (x86)/Microchip/MPLAB C32/bin/../lib/gcc/pic32mx/3.4.4/../../../../pic32mx/lib\libmchp_peripheral_32MX460F512L.a(int_enable_mv_int_lib.o)
                0x9d024980                INTEnableSystemMultiVectoredInt
 .text          0x9d0249b4        0x0 C:/Program Files (x86)/Microchip/MPLAB C32/bin/../lib/gcc/pic32mx/3.4.4/../../../../pic32mx/lib\libmchp_peripheral_32MX460F512L.a(puts_uartx_lib_legacy.o)
 .text.putsUART1
                0x9d0249b4       0x4c C:/Program Files (x86)/Microchip/MPLAB C32/bin/../lib/gcc/pic32mx/3.4.4/../../../../pic32mx/lib\libmchp_peripheral_32MX460F512L.a(puts_uartx_lib_legacy.o)
                0x9d0249b4                putsUART1
 .text.putsUART2
                0x9d024a00       0x4c C:/Program Files (x86)/Microchip/MPLAB C32/bin/../lib/gcc/pic32mx/3.4.4/../../../../pic32mx/lib\libmchp_peripheral_32MX460F512L.a(puts_uartx_lib_legacy.o)
                0x9d024a00                putsUART2
 .text          0x9d024a4c        0x0 C:/Program Files (x86)/Microchip/MPLAB C32/bin/../lib/gcc/pic32mx/3.4.4/../../../../pic32mx/lib\libmchp_peripheral_32MX460F512L.a(int_enable_interrupts_lib.o)
 .text.INTEnableInterrupts
                0x9d024a4c        0x8 C:/Program Files (x86)/Microchip/MPLAB C32/bin/../lib/gcc/pic32mx/3.4.4/../../../../pic32mx/lib\libmchp_peripheral_32MX460F512L.a(int_enable_interrupts_lib.o)
                0x9d024a4c                INTEnableInterrupts
 .text          0x9d024a54        0x0 C:/Program Files (x86)/Microchip/MPLAB C32/bin/../lib/gcc/pic32mx/3.4.4/../../../../pic32mx/lib/./proc/32MX460F512L\processor.o
 *(.text.*personality*)
 *(.gnu.warning)
 *(.mips16.fn.*)
 *(.mips16.call.*)
                0x9d024a54                _text_end = .

.rodata         0x9d024a54     0x98c0
 *(.rodata .rodata.* .gnu.linkonce.r.*)
 .rodata        0x9d024a54      0x274 build/default/production/_ext/1472/UARTConfig.o
 .rodata        0x9d024cc8       0xa8 build/default/production/_ext/1472/GenericTCPClient.o
 .rodata        0x9d024d70       0x1c build/default/production/_ext/1295770447/Announce.o
 .rodata        0x9d024d8c       0x34 build/default/production/_ext/1295770447/DHCP.o
 .rodata        0x9d024dc0       0x20 build/default/production/_ext/1295770447/DNS.o
 .rodata        0x9d024de0      0x140 build/default/production/_ext/1295770447/Hashes.o
 .rodata        0x9d024f20      0x6a0 build/default/production/_ext/1295770447/HTTP2.o
 .rodata        0x9d0255c0        0x8 build/default/production/_ext/1295770447/MPFS2.o
 .rodata        0x9d0255c8       0x14 build/default/production/_ext/1295770447/Reboot.o
 .rodata        0x9d0255dc       0x7c build/default/production/_ext/1295770447/TCP.o
                0x9d0255dc                TCPSocketInitializer
 .rodata        0x9d025658       0x5c build/default/production/_ext/1295770447/TCPPerformanceTest.o
 .rodata        0x9d0256b4      0x1f4 build/default/production/_ext/1295770447/Telnet.o
 .rodata        0x9d0258a8     0x7f60 build/default/production/_ext/1472/MPFSImg2.o
                0x9d0258a8                MPFS_Start
 .rodata        0x9d02d808       0x30 build/default/production/_ext/1295770447/AutoIP.o
 .rodata        0x9d02d838       0x40 build/default/production/_ext/1496989791/ZGDriverRaw.o
 .rodata        0x9d02d878        0xc build/default/production/_ext/1496989791/ZGAccessSys.o
 .rodata        0x9d02d884       0x1c build/default/production/_ext/1496989791/ZGSpi.o
 .rodata        0x9d02d8a0      0x124 build/default/production/_ext/1496989791/ZG2100.o
 .rodata        0x9d02d9c4       0x48 build/default/production/_ext/1496989791/ZGDriverCom.o
 .rodata        0x9d02da0c       0x2c build/default/production/_ext/1496989791/ZGDriverMac.o
 .rodata        0x9d02da38      0x36c build/default/production/_ext/1496989791/ZGWifiMgrII.o
                0x9d02da38                g_mangedFSM
 .rodata        0x9d02dda4       0x90 build/default/production/_ext/1496989791/ZGCommon.o
 .rodata        0x9d02de34       0x60 build/default/production/_ext/1496989791/ZGLibCfg.o
                0x9d02de34                g_SDKVersion
 .rodata        0x9d02de94       0x68 build/default/production/_ext/1496989791/ZGLibIface.o
 .rodata        0x9d02defc       0x50 build/default/production/_ext/1496989791/ZGLinkMgrII.o
                0x9d02defc                g_emptyFSM
 .rodata        0x9d02df4c       0x80 build/default/production/_ext/1472/MainDemo.o
 .rodata        0x9d02dfcc      0x244 build/default/production/_ext/1472/CustomHTTPApp.o
                0x9d02e10c                HTML_UP_ARROW
                0x9d02e110                HTML_DOWN_ARROW
 .rodata        0x9d02e210      0x104 C:/Program Files (x86)/Microchip/MPLAB C32/bin/../lib/gcc/pic32mx/3.4.4/../../../../pic32mx/lib\libc.a(ctype.o)
                0x9d02e210                _ctype
 *(.rodata1)
                0x9d02e314                . = ALIGN (0x4)

.sdata2         0x9d02e314        0x0
 *(.sdata2 .sdata2.* .gnu.linkonce.s2.*)
                0x9d02e314                . = ALIGN (0x4)

.sbss2          0x9d02e314        0x0
 *(.sbss2 .sbss2.* .gnu.linkonce.sb2.*)
                0x9d02e314                . = ALIGN (0x4)

.eh_frame_hdr
 *(.eh_frame_hdr)

.eh_frame       0x9d02e314       0x20
 *(.eh_frame)
 .eh_frame      0x9d02e314       0x20 C:/Program Files (x86)/Microchip/MPLAB C32/bin/../lib/gcc/pic32mx/3.4.4\libgcc.a(_udivdi3.o)

.dbg_data       0xa0000000        0x0
                0xa0000000                . = (. + DEFINED (_DEBUGGER)?0x200:0x0)

.persist        0xa0000000        0x0
                0xa0000000                _persist_begin = .
 *(.persist .persist.*)
                0xa0000000                _persist_end = .

.data           0xa0000000       0xe4 load address 0x9d02e334
                0xa0000000                _data_begin = .
 *(.data .data.* .gnu.linkonce.d.*)
 .data          0xa0000000        0x0 C:/Program Files (x86)/Microchip/MPLAB C32/bin/../lib/gcc/pic32mx/3.4.4/../../../../pic32mx/lib/crt0.o
 .data          0xa0000000        0x0 build/default/production/_ext/1472/UARTConfig.o
 .data          0xa0000000       0x10 build/default/production/_ext/1472/GenericTCPClient.o
 .data          0xa0000010        0x0 build/default/production/_ext/1472/GenericTCPServer.o
 .data          0xa0000010        0x0 build/default/production/_ext/1472/LegacyHTTPApp.o
 .data          0xa0000010        0x0 build/default/production/_ext/1472/PingDemo.o
 .data          0xa0000010        0x0 build/default/production/_ext/1472/SMTPDemo.o
 .data          0xa0000010        0x0 build/default/production/_ext/1472/BerkeleyUDPClientDemo.o
 .data          0xa0000010        0x0 build/default/production/_ext/1472/BerkeleyTCPClientDemo.o
 .data          0xa0000010        0x0 build/default/production/_ext/1472/BerkeleyTCPServerDemo.o
 .data          0xa0000010        0x0 build/default/production/_ext/1295770447/UDPPerformanceTest.o
 .data          0xa0000010        0x0 build/default/production/_ext/1295770447/Announce.o
 .data          0xa0000010        0x0 build/default/production/_ext/1295770447/ARP.o
 .data          0xa0000010        0x0 build/default/production/_ext/1295770447/Delay.o
 .data          0xa0000010        0x0 build/default/production/_ext/1295770447/DHCP.o
 .data          0xa0000010        0x0 build/default/production/_ext/1295770447/DHCPs.o
 .data          0xa0000010        0x0 build/default/production/_ext/1295770447/DNS.o
 .data          0xa0000010        0x0 build/default/production/_ext/1295770447/DynDNS.o
 .data          0xa0000010        0x0 build/default/production/_ext/1295770447/FTP.o
 .data          0xa0000010        0x0 build/default/production/_ext/1295770447/Hashes.o
 .data          0xa0000010        0x0 build/default/production/_ext/1295770447/Helpers.o
 .data          0xa0000010        0x0 build/default/production/_ext/1295770447/HTTP2.o
 .data          0xa0000010        0x0 build/default/production/_ext/1295770447/HTTP.o
 .data          0xa0000010        0x0 build/default/production/_ext/1295770447/ICMP.o
 .data          0xa0000010        0x0 build/default/production/_ext/1295770447/IP.o
 .data          0xa0000010        0x0 build/default/production/_ext/1295770447/LCDBlocking.o
 .data          0xa0000010        0x0 build/default/production/_ext/1295770447/MPFS2.o
 .data          0xa0000010        0x0 build/default/production/_ext/1295770447/MPFS.o
 .data          0xa0000010        0x0 build/default/production/_ext/1295770447/NBNS.o
 .data          0xa0000010        0x0 build/default/production/_ext/1295770447/Reboot.o
 .data          0xa0000010        0x0 build/default/production/_ext/1295770447/SMTP.o
 .data          0xa0000010        0x0 build/default/production/_ext/1295770447/SNMP.o
 .data          0xa0000010        0x0 build/default/production/_ext/1295770447/SNTP.o
 .data          0xa0000010        0x0 build/default/production/_ext/1295770447/StackTsk.o
 .data          0xa0000010        0x0 build/default/production/_ext/1295770447/TCP.o
 .data          0xa0000010        0x0 build/default/production/_ext/1295770447/TCPPerformanceTest.o
 .data          0xa0000010        0x0 build/default/production/_ext/1295770447/Telnet.o
 .data          0xa0000010        0x0 build/default/production/_ext/1295770447/TFTPc.o
 .data          0xa0000010        0x0 build/default/production/_ext/1295770447/Tick.o
 .data          0xa0000010        0x0 build/default/production/_ext/1295770447/UART2TCPBridge.o
 .data          0xa0000010        0x0 build/default/production/_ext/1295770447/UART.o
 .data          0xa0000010        0x0 build/default/production/_ext/1295770447/UDP.o
 .data          0xa0000010        0x0 build/default/production/_ext/1295770447/BerkeleyAPI.o
 .data          0xa0000010        0x0 build/default/production/_ext/1472/MPFSImg2.o
 .data          0xa0000010        0x0 build/default/production/_ext/1295770447/SSL.o
 .data          0xa0000010        0x0 build/default/production/_ext/1295770447/ARCFOUR.o
 .data          0xa0000010        0x0 build/default/production/_ext/1295770447/BigInt.o
 .data          0xa0000010        0x0 build/default/production/_ext/1295770447/BigInt_helper_C32.o
 .data          0xa0000010        0x0 build/default/production/_ext/1295770447/Random.o
 .data          0xa0000010        0x0 build/default/production/_ext/1295770447/RSA.o
 .data          0xa0000010        0x0 build/default/production/_ext/1295770447/AutoIP.o
 .data          0xa0000010        0x0 build/default/production/_ext/1496989791/ZGDriverRaw.o
 .data          0xa0000010        0x0 build/default/production/_ext/1496989791/ZGAccessApp.o
 .data          0xa0000010        0x0 build/default/production/_ext/1496989791/ZGAccessSys.o
 .data          0xa0000010        0x0 build/default/production/_ext/1496989791/ZGEint.o
 .data          0xa0000010        0x0 build/default/production/_ext/1496989791/ZGHWReset.o
 .data          0xa0000010        0x0 build/default/production/_ext/1496989791/ZGSpi.o
 .data          0xa0000010        0x0 build/default/production/_ext/1496989791/ZG2100.o
 .data          0xa0000010        0x0 build/default/production/_ext/1496989791/ZGDriverCom.o
 .data          0xa0000010        0x0 build/default/production/_ext/1496989791/ZGDriverIFace.o
 .data          0xa0000010        0x0 build/default/production/_ext/1496989791/ZGDriverMac.o
 .data          0xa0000010        0x0 build/default/production/_ext/1496989791/ZGWifiMgrII.o
 .data          0xa0000010        0x0 build/default/production/_ext/1496989791/ZGAdhocMgrII.o
 .data          0xa0000010        0x0 build/default/production/_ext/1496989791/ZGCommon.o
 .data          0xa0000010       0xa4 build/default/production/_ext/1496989791/ZGLibCfg.o
                0xa0000010                g_targetChannels
                0xa0000020                g_PMKKeyData
                0xa0000040                g_targetPassPhrase
                0xa0000080                g_WEPKeyData
 .data          0xa00000b4        0x0 build/default/production/_ext/1496989791/ZGLibIface.o
 .data          0xa00000b4        0x0 build/default/production/_ext/1496989791/ZGLinkMgrII.o
 .data          0xa00000b4        0x0 build/default/production/_ext/1496989791/ZGEasyConfig.o
 .data          0xa00000b4        0x0 build/default/production/_ext/1472/MainDemo.o
 .data          0xa00000b4        0x0 build/default/production/_ext/1472/CustomHTTPApp.o
 .data          0xa00000b4        0x0 build/default/production/_ext/1472/CustomSNMPApp.o
 .data          0xa00000b4        0x0 build/default/production/_ext/1472/CustomSSLCert.o
 .data          0xa00000b4        0x0 C:/Program Files (x86)/Microchip/MPLAB C32/bin/../lib/gcc/pic32mx/3.4.4\libgcc.a(_udivdi3.o)
 .data          0xa00000b4        0x0 C:/Program Files (x86)/Microchip/MPLAB C32/bin/../lib/gcc/pic32mx/3.4.4/../../../../pic32mx/lib\libc.a(memcmp.o)
 .data          0xa00000b4        0x0 C:/Program Files (x86)/Microchip/MPLAB C32/bin/../lib/gcc/pic32mx/3.4.4/../../../../pic32mx/lib\libc.a(memcpy.o)
 .data          0xa00000b4        0x0 C:/Program Files (x86)/Microchip/MPLAB C32/bin/../lib/gcc/pic32mx/3.4.4/../../../../pic32mx/lib\libc.a(memset.o)
 .data          0xa00000b4        0x0 C:/Program Files (x86)/Microchip/MPLAB C32/bin/../lib/gcc/pic32mx/3.4.4/../../../../pic32mx/lib\libc.a(strcmp.o)
 .data          0xa00000b4        0x0 C:/Program Files (x86)/Microchip/MPLAB C32/bin/../lib/gcc/pic32mx/3.4.4/../../../../pic32mx/lib\libc.a(strcpy.o)
 .data          0xa00000b4        0x0 C:/Program Files (x86)/Microchip/MPLAB C32/bin/../lib/gcc/pic32mx/3.4.4/../../../../pic32mx/lib\libc.a(strlen.o)
 .data          0xa00000b4        0x0 C:/Program Files (x86)/Microchip/MPLAB C32/bin/../lib/gcc/pic32mx/3.4.4/../../../../pic32mx/lib\libc.a(general-exception.o)
 .data          0xa00000b4        0x0 C:/Program Files (x86)/Microchip/MPLAB C32/bin/../lib/gcc/pic32mx/3.4.4/../../../../pic32mx/lib\libc.a(strncmp.o)
 .data          0xa00000b4        0x0 C:/Program Files (x86)/Microchip/MPLAB C32/bin/../lib/gcc/pic32mx/3.4.4/../../../../pic32mx/lib\libc.a(exit.o)
 .data          0xa00000b4       0x30 C:/Program Files (x86)/Microchip/MPLAB C32/bin/../lib/gcc/pic32mx/3.4.4/../../../../pic32mx/lib\libc.a(rand.o)
 .data          0xa00000e4        0x0 C:/Program Files (x86)/Microchip/MPLAB C32/bin/../lib/gcc/pic32mx/3.4.4/../../../../pic32mx/lib\libc.a(atol.o)
 .data          0xa00000e4        0x0 C:/Program Files (x86)/Microchip/MPLAB C32/bin/../lib/gcc/pic32mx/3.4.4/../../../../pic32mx/lib\libc.a(atoi.o)
 .data          0xa00000e4        0x0 C:/Program Files (x86)/Microchip/MPLAB C32/bin/../lib/gcc/pic32mx/3.4.4/../../../../pic32mx/lib\libc.a(strtol.o)
 .data          0xa00000e4        0x0 C:/Program Files (x86)/Microchip/MPLAB C32/bin/../lib/gcc/pic32mx/3.4.4/../../../../pic32mx/lib\libc.a(stubs.o)
 .data          0xa00000e4        0x0 C:/Program Files (x86)/Microchip/MPLAB C32/bin/../lib/gcc/pic32mx/3.4.4/../../../../pic32mx/lib\libc.a(default-bootstrap-exception-handler.o)
 .data          0xa00000e4        0x0 C:/Program Files (x86)/Microchip/MPLAB C32/bin/../lib/gcc/pic32mx/3.4.4/../../../../pic32mx/lib\libc.a(default-on-reset.o)
 .data          0xa00000e4        0x0 C:/Program Files (x86)/Microchip/MPLAB C32/bin/../lib/gcc/pic32mx/3.4.4/../../../../pic32mx/lib\libc.a(default-on-bootstrap.o)
 .data          0xa00000e4        0x0 C:/Program Files (x86)/Microchip/MPLAB C32/bin/../lib/gcc/pic32mx/3.4.4/../../../../pic32mx/lib\libc.a(default-nmi-handler.o)
 .data          0xa00000e4        0x0 C:/Program Files (x86)/Microchip/MPLAB C32/bin/../lib/gcc/pic32mx/3.4.4/../../../../pic32mx/lib\libc.a(_exit.o)
 .data          0xa00000e4        0x0 C:/Program Files (x86)/Microchip/MPLAB C32/bin/../lib/gcc/pic32mx/3.4.4/../../../../pic32mx/lib\libc.a(ctype.o)
 .data          0xa00000e4        0x0 C:/Program Files (x86)/Microchip/MPLAB C32/bin/../lib/gcc/pic32mx/3.4.4/../../../../pic32mx/lib\libc.a(errno.o)
 .data          0xa00000e4        0x0 C:/Program Files (x86)/Microchip/MPLAB C32/bin/../lib/gcc/pic32mx/3.4.4/../../../../pic32mx/lib\libmchp_peripheral_32MX460F512L.a(soft_reset_lib.o)
 .data          0xa00000e4        0x0 C:/Program Files (x86)/Microchip/MPLAB C32/bin/../lib/gcc/pic32mx/3.4.4/../../../../pic32mx/lib\libmchp_peripheral_32MX460F512L.a(pcache.o)
 .data          0xa00000e4        0x0 C:/Program Files (x86)/Microchip/MPLAB C32/bin/../lib/gcc/pic32mx/3.4.4/../../../../pic32mx/lib\libmchp_peripheral_32MX460F512L.a(int_disable_interrupts_lib.o)
 .data          0xa00000e4        0x0 C:/Program Files (x86)/Microchip/MPLAB C32/bin/../lib/gcc/pic32mx/3.4.4/../../../../pic32mx/lib\libmchp_peripheral_32MX460F512L.a(int_restore_interrupts_lib.o)
 .data          0xa00000e4        0x0 C:/Program Files (x86)/Microchip/MPLAB C32/bin/../lib/gcc/pic32mx/3.4.4/../../../../pic32mx/lib\libmchp_peripheral_32MX460F512L.a(int_enable_mv_int_lib.o)
 .data          0xa00000e4        0x0 C:/Program Files (x86)/Microchip/MPLAB C32/bin/../lib/gcc/pic32mx/3.4.4/../../../../pic32mx/lib\libmchp_peripheral_32MX460F512L.a(puts_uartx_lib_legacy.o)
 .data          0xa00000e4        0x0 C:/Program Files (x86)/Microchip/MPLAB C32/bin/../lib/gcc/pic32mx/3.4.4/../../../../pic32mx/lib\libmchp_peripheral_32MX460F512L.a(int_enable_interrupts_lib.o)
 .data          0xa00000e4        0x0 C:/Program Files (x86)/Microchip/MPLAB C32/bin/../lib/gcc/pic32mx/3.4.4/../../../../pic32mx/lib/./proc/32MX460F512L\processor.o
 *(.gnu.linkonce.d.*personality*)
 *(.data1)
                0x9d02e334                _data_image_begin = LOADADDR (.data)

.eh_frame
 *(.eh_frame)
                0xa00000e4                . = .
                0xa00080e0                _gp = (ALIGN (0x10) + 0x7ff0)

.got
 *(.got.plt)
 *(.got)

.sdata          0xa00000e4       0x2c load address 0x9d02e418
                0xa00000e4                _sdata_begin = .
 *(.sdata .sdata.* .gnu.linkonce.s.*)
 .sdata         0xa00000e4        0x8 build/default/production/_ext/1472/GenericTCPClient.o
 .sdata         0xa00000ec        0x4 build/default/production/_ext/1295770447/DHCPs.o
                0xa00000ec                bDHCPServerEnabled
 .sdata         0xa00000f0        0x8 build/default/production/_ext/1295770447/DNS.o
 .sdata         0xa00000f8        0x1 build/default/production/_ext/1295770447/Reboot.o
 .sdata         0xa00000f9        0x2 build/default/production/_ext/1295770447/TCP.o
 .sdata         0xa00000fb        0x2 build/default/production/_ext/1295770447/TCPPerformanceTest.o
 .sdata         0xa00000fd        0x2 build/default/production/_ext/1295770447/UDP.o
 *fill*         0xa00000ff        0x1 00
 .sdata         0xa0000100        0x4 build/default/production/_ext/1496989791/ZG2100.o
                0xa0000100                ZGArpBroadcastIntervalSec
 .sdata         0xa0000104        0x5 build/default/production/_ext/1496989791/ZGLibCfg.o
                0xa0000104                g_targetActiveChannels
                0xa0000105                g_encType
                0xa0000106                g_wepKeyLen
                0xa0000107                g_pwrRxDTIMEnabled
                0xa0000108                g_dataConfirmation
 *fill*         0xa0000109        0x3 00
 .sdata         0xa000010c        0x4 build/default/production/_ext/1472/MainDemo.o
                0xa000010c                __C30_UART
                0xa0000110                _sdata_end = .

.lit8
 *(.lit8)

.lit4
 *(.lit4)
                0xa0000110                . = ALIGN (0x4)
                0xa0000110                _data_end = .
                0xa0000110                _bss_begin = .

.sbss           0xa0000110      0x128 load address 0x9d02e444
                0xa0000110                _sbss_begin = .
 *(.dynsbss)
 *(.sbss .sbss.* .gnu.linkonce.sb.*)
 .sbss          0xa0000110        0x4 build/default/production/_ext/1472/GenericTCPClient.o
 .sbss          0xa0000114        0x8 build/default/production/_ext/1472/GenericTCPServer.o
 .sbss          0xa000011c        0x8 build/default/production/_ext/1295770447/Announce.o
 .sbss          0xa0000124        0x4 build/default/production/_ext/1295770447/ARP.o
 .sbss          0xa0000128        0x4 build/default/production/_ext/1295770447/DHCP.o
                0xa0000128                DHCPClientInitializedOnce
 .sbss          0xa000012c        0xc build/default/production/_ext/1295770447/DHCPs.o
 .sbss          0xa0000138       0x18 build/default/production/_ext/1295770447/DNS.o
 .sbss          0xa0000150        0x4 build/default/production/_ext/1295770447/IP.o
 .sbss          0xa0000154        0x8 build/default/production/_ext/1295770447/MPFS2.o
 .sbss          0xa000015c        0x8 build/default/production/_ext/1295770447/NBNS.o
 .sbss          0xa0000164        0x8 build/default/production/_ext/1295770447/StackTsk.o
 .sbss          0xa000016c        0x2 build/default/production/_ext/1295770447/TCP.o
 *fill*         0xa000016e        0x2 00
 .sbss          0xa0000170       0x14 build/default/production/_ext/1295770447/TCPPerformanceTest.o
 .sbss          0xa0000184        0xc build/default/production/_ext/1295770447/Telnet.o
 .sbss          0xa0000190        0xc build/default/production/_ext/1295770447/Tick.o
 .sbss          0xa000019c        0xc build/default/production/_ext/1295770447/UDP.o
 .sbss          0xa00001a8        0x2 build/default/production/_ext/1496989791/ZGDriverRaw.o
                0xa00001a8                gHostRAWDataPacketReceived
 *fill*         0xa00001aa        0x2 00
 .sbss          0xa00001ac        0x4 build/default/production/_ext/1496989791/ZGEint.o
                0xa00001ac                interruptEnableFlag
 .sbss          0xa00001b0        0xc build/default/production/_ext/1496989791/ZGSpi.o
 .sbss          0xa00001bc       0x28 build/default/production/_ext/1496989791/ZG2100.o
 .sbss          0xa00001e4        0x4 build/default/production/_ext/1496989791/ZGDriverCom.o
 .sbss          0xa00001e8        0x8 build/default/production/_ext/1496989791/ZGDriverMac.o
 .sbss          0xa00001f0       0x10 build/default/production/_ext/1496989791/ZGLibCfg.o
                0xa00001f0                g_DHCP
                0xa00001f1                g_targetRegDom
                0xa00001f2                g_authType
                0xa00001f3                g_wepKeyIndex
 .sbss          0xa0000200        0x8 build/default/production/_ext/1496989791/ZGLibIface.o
 .sbss          0xa0000208        0x8 build/default/production/_ext/1472/MainDemo.o
 .sbss          0xa0000210        0x8 build/default/production/_ext/1472/CustomHTTPApp.o
 .sbss          0xa0000218        0x4 C:/Program Files (x86)/Microchip/MPLAB C32/bin/../lib/gcc/pic32mx/3.4.4/../../../../pic32mx/lib\libc.a(errno.o)
                0xa0000218                errno
 *(.scommon)
 .scommon       0xa000021c        0x1 build/default/production/_ext/1295770447/HTTP2.o
                0xa000021c                curHTTPID
 *fill*         0xa000021d        0x1 00
 .scommon       0xa000021e        0x6 build/default/production/_ext/1295770447/UDP.o
                0xa000021e                UDPTxCount
                0xa0000220                activeUDPSocket
                0xa0000222                UDPRxCount
 .scommon       0xa0000224        0x6 build/default/production/_ext/1496989791/ZG2100.o
                0xa0000224                gRxIndexSetBeyondBuffer
                0xa0000228                zgBufferRAWState
 .scommon       0xa000022a        0x5 build/default/production/_ext/1496989791/ZGLibCfg.o
                0xa000022a                g_Rts
                0xa000022c                g_pwrMgmtEnabled
                0xa000022d                g_txRate
                0xa000022e                g_RfEnabled
 *fill*         0xa000022f        0x1 00
 .scommon       0xa0000230        0x8 build/default/production/_ext/1472/MainDemo.o
                0xa0000230                AN0String
                0xa0000238                _sbss_end = .

.bss            0xa0000238      0x558 load address 0x9d02e444
 *(.dynbss)
 *(.bss .bss.* .gnu.linkonce.b.*)
 .bss           0xa0000238        0x0 C:/Program Files (x86)/Microchip/MPLAB C32/bin/../lib/gcc/pic32mx/3.4.4/../../../../pic32mx/lib/crt0.o
 .bss           0xa0000238        0x0 build/default/production/_ext/1472/UARTConfig.o
 .bss           0xa0000238        0x0 build/default/production/_ext/1472/GenericTCPClient.o
 .bss           0xa0000238        0x0 build/default/production/_ext/1472/GenericTCPServer.o
 .bss           0xa0000238        0x0 build/default/production/_ext/1472/LegacyHTTPApp.o
 .bss           0xa0000238        0x0 build/default/production/_ext/1472/PingDemo.o
 .bss           0xa0000238        0x0 build/default/production/_ext/1472/SMTPDemo.o
 .bss           0xa0000238        0x0 build/default/production/_ext/1472/BerkeleyUDPClientDemo.o
 .bss           0xa0000238        0x0 build/default/production/_ext/1472/BerkeleyTCPClientDemo.o
 .bss           0xa0000238        0x0 build/default/production/_ext/1472/BerkeleyTCPServerDemo.o
 .bss           0xa0000238        0x0 build/default/production/_ext/1295770447/UDPPerformanceTest.o
 .bss           0xa0000238        0x0 build/default/production/_ext/1295770447/Announce.o
 .bss           0xa0000238       0x18 build/default/production/_ext/1295770447/ARP.o
 .bss           0xa0000250        0x0 build/default/production/_ext/1295770447/Delay.o
 .bss           0xa0000250       0x30 build/default/production/_ext/1295770447/DHCP.o
 .bss           0xa0000280        0x0 build/default/production/_ext/1295770447/DHCPs.o
 .bss           0xa0000280        0xc build/default/production/_ext/1295770447/DNS.o
 .bss           0xa000028c        0x0 build/default/production/_ext/1295770447/DynDNS.o
 .bss           0xa000028c        0x0 build/default/production/_ext/1295770447/FTP.o
 .bss           0xa000028c        0x0 build/default/production/_ext/1295770447/Hashes.o
 .bss           0xa000028c        0x0 build/default/production/_ext/1295770447/Helpers.o
 .bss           0xa000028c        0x0 build/default/production/_ext/1295770447/HTTP2.o
 .bss           0xa000028c        0x0 build/default/production/_ext/1295770447/HTTP.o
 .bss           0xa000028c        0x0 build/default/production/_ext/1295770447/ICMP.o
 .bss           0xa000028c        0x0 build/default/production/_ext/1295770447/IP.o
 .bss           0xa000028c        0x0 build/default/production/_ext/1295770447/LCDBlocking.o
 .bss           0xa000028c       0x78 build/default/production/_ext/1295770447/MPFS2.o
 .bss           0xa0000304        0x0 build/default/production/_ext/1295770447/MPFS.o
 .bss           0xa0000304        0x0 build/default/production/_ext/1295770447/NBNS.o
 .bss           0xa0000304        0x0 build/default/production/_ext/1295770447/Reboot.o
 .bss           0xa0000304        0x0 build/default/production/_ext/1295770447/SMTP.o
 .bss           0xa0000304        0x0 build/default/production/_ext/1295770447/SNMP.o
 .bss           0xa0000304        0x0 build/default/production/_ext/1295770447/SNTP.o
 .bss           0xa0000304        0x0 build/default/production/_ext/1295770447/StackTsk.o
 .bss           0xa0000304       0xd4 build/default/production/_ext/1295770447/TCP.o
 .bss           0xa00003d8        0xc build/default/production/_ext/1295770447/TCPPerformanceTest.o
 .bss           0xa00003e4        0x0 build/default/production/_ext/1295770447/Telnet.o
 .bss           0xa00003e4        0x0 build/default/production/_ext/1295770447/TFTPc.o
 .bss           0xa00003e4        0x0 build/default/production/_ext/1295770447/Tick.o
 .bss           0xa00003e4        0x0 build/default/production/_ext/1295770447/UART2TCPBridge.o
 .bss           0xa00003e4        0x0 build/default/production/_ext/1295770447/UART.o
 .bss           0xa00003e4        0x0 build/default/production/_ext/1295770447/UDP.o
 .bss           0xa00003e4        0x0 build/default/production/_ext/1295770447/BerkeleyAPI.o
 .bss           0xa00003e4        0x0 build/default/production/_ext/1472/MPFSImg2.o
 .bss           0xa00003e4        0x0 build/default/production/_ext/1295770447/SSL.o
 .bss           0xa00003e4        0x0 build/default/production/_ext/1295770447/ARCFOUR.o
 .bss           0xa00003e4        0x0 build/default/production/_ext/1295770447/BigInt.o
 .bss           0xa00003e4        0x0 build/default/production/_ext/1295770447/BigInt_helper_C32.o
 .bss           0xa00003e4        0x0 build/default/production/_ext/1295770447/Random.o
 .bss           0xa00003e4        0x0 build/default/production/_ext/1295770447/RSA.o
 .bss           0xa00003e4       0x34 build/default/production/_ext/1295770447/AutoIP.o
 .bss           0xa0000418        0x0 build/default/production/_ext/1496989791/ZGDriverRaw.o
 .bss           0xa0000418        0x0 build/default/production/_ext/1496989791/ZGAccessApp.o
 .bss           0xa0000418        0x0 build/default/production/_ext/1496989791/ZGAccessSys.o
 .bss           0xa0000418        0x0 build/default/production/_ext/1496989791/ZGEint.o
 .bss           0xa0000418        0x0 build/default/production/_ext/1496989791/ZGHWReset.o
 .bss           0xa0000418       0x20 build/default/production/_ext/1496989791/ZGSpi.o
 .bss           0xa0000438        0x0 build/default/production/_ext/1496989791/ZG2100.o
 .bss           0xa0000438        0x0 build/default/production/_ext/1496989791/ZGDriverCom.o
 .bss           0xa0000438        0x0 build/default/production/_ext/1496989791/ZGDriverIFace.o
 .bss           0xa0000438        0x0 build/default/production/_ext/1496989791/ZGDriverMac.o
 .bss           0xa0000438        0x0 build/default/production/_ext/1496989791/ZGWifiMgrII.o
 .bss           0xa0000438        0x0 build/default/production/_ext/1496989791/ZGAdhocMgrII.o
 .bss           0xa0000438        0x0 build/default/production/_ext/1496989791/ZGCommon.o
 .bss           0xa0000438        0x0 build/default/production/_ext/1496989791/ZGLibCfg.o
 .bss           0xa0000438       0x90 build/default/production/_ext/1496989791/ZGLibIface.o
 .bss           0xa00004c8        0x0 build/default/production/_ext/1496989791/ZGLinkMgrII.o
 .bss           0xa00004c8        0x0 build/default/production/_ext/1496989791/ZGEasyConfig.o
 .bss           0xa00004c8        0x0 build/default/production/_ext/1472/MainDemo.o
 .bss           0xa00004c8       0x5c build/default/production/_ext/1472/CustomHTTPApp.o
 .bss           0xa0000524        0x0 build/default/production/_ext/1472/CustomSNMPApp.o
 .bss           0xa0000524        0x0 build/default/production/_ext/1472/CustomSSLCert.o
 .bss           0xa0000524        0x0 C:/Program Files (x86)/Microchip/MPLAB C32/bin/../lib/gcc/pic32mx/3.4.4\libgcc.a(_udivdi3.o)
 .bss           0xa0000524        0x0 C:/Program Files (x86)/Microchip/MPLAB C32/bin/../lib/gcc/pic32mx/3.4.4/../../../../pic32mx/lib\libc.a(memcmp.o)
 .bss           0xa0000524        0x0 C:/Program Files (x86)/Microchip/MPLAB C32/bin/../lib/gcc/pic32mx/3.4.4/../../../../pic32mx/lib\libc.a(memcpy.o)
 .bss           0xa0000524        0x0 C:/Program Files (x86)/Microchip/MPLAB C32/bin/../lib/gcc/pic32mx/3.4.4/../../../../pic32mx/lib\libc.a(memset.o)
 .bss           0xa0000524        0x0 C:/Program Files (x86)/Microchip/MPLAB C32/bin/../lib/gcc/pic32mx/3.4.4/../../../../pic32mx/lib\libc.a(strcmp.o)
 .bss           0xa0000524        0x0 C:/Program Files (x86)/Microchip/MPLAB C32/bin/../lib/gcc/pic32mx/3.4.4/../../../../pic32mx/lib\libc.a(strcpy.o)
 .bss           0xa0000524        0x0 C:/Program Files (x86)/Microchip/MPLAB C32/bin/../lib/gcc/pic32mx/3.4.4/../../../../pic32mx/lib\libc.a(strlen.o)
 .bss           0xa0000524        0x0 C:/Program Files (x86)/Microchip/MPLAB C32/bin/../lib/gcc/pic32mx/3.4.4/../../../../pic32mx/lib\libc.a(general-exception.o)
 .bss           0xa0000524        0x0 C:/Program Files (x86)/Microchip/MPLAB C32/bin/../lib/gcc/pic32mx/3.4.4/../../../../pic32mx/lib\libc.a(strncmp.o)
 .bss           0xa0000524        0x0 C:/Program Files (x86)/Microchip/MPLAB C32/bin/../lib/gcc/pic32mx/3.4.4/../../../../pic32mx/lib\libc.a(exit.o)
 .bss           0xa0000524        0x0 C:/Program Files (x86)/Microchip/MPLAB C32/bin/../lib/gcc/pic32mx/3.4.4/../../../../pic32mx/lib\libc.a(rand.o)
 .bss           0xa0000524        0x0 C:/Program Files (x86)/Microchip/MPLAB C32/bin/../lib/gcc/pic32mx/3.4.4/../../../../pic32mx/lib\libc.a(atol.o)
 .bss           0xa0000524        0x0 C:/Program Files (x86)/Microchip/MPLAB C32/bin/../lib/gcc/pic32mx/3.4.4/../../../../pic32mx/lib\libc.a(atoi.o)
 .bss           0xa0000524        0x0 C:/Program Files (x86)/Microchip/MPLAB C32/bin/../lib/gcc/pic32mx/3.4.4/../../../../pic32mx/lib\libc.a(strtol.o)
 .bss           0xa0000524        0x4 C:/Program Files (x86)/Microchip/MPLAB C32/bin/../lib/gcc/pic32mx/3.4.4/../../../../pic32mx/lib\libc.a(stubs.o)
                0xa0000524                __isthreaded
 .bss           0xa0000528        0x0 C:/Program Files (x86)/Microchip/MPLAB C32/bin/../lib/gcc/pic32mx/3.4.4/../../../../pic32mx/lib\libc.a(default-bootstrap-exception-handler.o)
 .bss           0xa0000528        0x0 C:/Program Files (x86)/Microchip/MPLAB C32/bin/../lib/gcc/pic32mx/3.4.4/../../../../pic32mx/lib\libc.a(default-on-reset.o)
 .bss           0xa0000528        0x0 C:/Program Files (x86)/Microchip/MPLAB C32/bin/../lib/gcc/pic32mx/3.4.4/../../../../pic32mx/lib\libc.a(default-on-bootstrap.o)
 .bss           0xa0000528        0x0 C:/Program Files (x86)/Microchip/MPLAB C32/bin/../lib/gcc/pic32mx/3.4.4/../../../../pic32mx/lib\libc.a(default-nmi-handler.o)
 .bss           0xa0000528        0x0 C:/Program Files (x86)/Microchip/MPLAB C32/bin/../lib/gcc/pic32mx/3.4.4/../../../../pic32mx/lib\libc.a(_exit.o)
 .bss           0xa0000528        0x0 C:/Program Files (x86)/Microchip/MPLAB C32/bin/../lib/gcc/pic32mx/3.4.4/../../../../pic32mx/lib\libc.a(ctype.o)
 .bss           0xa0000528        0x0 C:/Program Files (x86)/Microchip/MPLAB C32/bin/../lib/gcc/pic32mx/3.4.4/../../../../pic32mx/lib\libc.a(errno.o)
 .bss           0xa0000528        0x0 C:/Program Files (x86)/Microchip/MPLAB C32/bin/../lib/gcc/pic32mx/3.4.4/../../../../pic32mx/lib\libmchp_peripheral_32MX460F512L.a(soft_reset_lib.o)
 .bss           0xa0000528        0x0 C:/Program Files (x86)/Microchip/MPLAB C32/bin/../lib/gcc/pic32mx/3.4.4/../../../../pic32mx/lib\libmchp_peripheral_32MX460F512L.a(pcache.o)
 .bss           0xa0000528        0x0 C:/Program Files (x86)/Microchip/MPLAB C32/bin/../lib/gcc/pic32mx/3.4.4/../../../../pic32mx/lib\libmchp_peripheral_32MX460F512L.a(int_disable_interrupts_lib.o)
 .bss           0xa0000528        0x0 C:/Program Files (x86)/Microchip/MPLAB C32/bin/../lib/gcc/pic32mx/3.4.4/../../../../pic32mx/lib\libmchp_peripheral_32MX460F512L.a(int_restore_interrupts_lib.o)
 .bss           0xa0000528        0x0 C:/Program Files (x86)/Microchip/MPLAB C32/bin/../lib/gcc/pic32mx/3.4.4/../../../../pic32mx/lib\libmchp_peripheral_32MX460F512L.a(int_enable_mv_int_lib.o)
 .bss           0xa0000528        0x0 C:/Program Files (x86)/Microchip/MPLAB C32/bin/../lib/gcc/pic32mx/3.4.4/../../../../pic32mx/lib\libmchp_peripheral_32MX460F512L.a(puts_uartx_lib_legacy.o)
 .bss           0xa0000528        0x0 C:/Program Files (x86)/Microchip/MPLAB C32/bin/../lib/gcc/pic32mx/3.4.4/../../../../pic32mx/lib\libmchp_peripheral_32MX460F512L.a(int_enable_interrupts_lib.o)
 .bss           0xa0000528        0x0 C:/Program Files (x86)/Microchip/MPLAB C32/bin/../lib/gcc/pic32mx/3.4.4/../../../../pic32mx/lib/./proc/32MX460F512L\processor.o
 *(COMMON)
 COMMON         0xa0000528       0x40 build/default/production/_ext/1295770447/Hashes.o
                0xa0000528                lastBlock
 COMMON         0xa0000568       0x9c build/default/production/_ext/1295770447/HTTP2.o
                0xa0000568                curHTTP
                0xa00005f4                httpStubs
 COMMON         0xa0000604       0x21 build/default/production/_ext/1295770447/LCDBlocking.o
                0xa0000604                LCDText
 *fill*         0xa0000625        0x3 00
 COMMON         0xa0000628        0xa build/default/production/_ext/1295770447/StackTsk.o
                0xa0000628                remoteNode
 *fill*         0xa0000632        0x2 00
 COMMON         0xa0000634       0x7e build/default/production/_ext/1295770447/UDP.o
                0xa0000634                UDPSocketInfo
 *fill*         0xa00006b2        0x2 00
 COMMON         0xa00006b4       0x1a build/default/production/_ext/1496989791/ZGDriverMac.o
                0xa00006b4                gblDriverContext
 *fill*         0xa00006ce        0x2 00
 COMMON         0xa00006d0       0x6c build/default/production/_ext/1496989791/ZGLinkMgrII.o
                0xa00006d0                g_linkMgrCtx
 COMMON         0xa000073c       0x53 build/default/production/_ext/1472/MainDemo.o
                0xa000073c                AppConfig
                0xa0000790                . = ALIGN (0x4)
 *fill*         0xa000078f        0x1 00
                0xa0000790                . = ALIGN (0x4)
                0xa0000790                _end = .
                0xa0000790                _bss_end = .

.heap           0xa0000790        0x0 load address 0x9d02e444
                0xa0000790                _heap = .
                0xa0000790                . = (. + _min_heap_size)
                0xa0000790                . = ALIGN (0x8)

.stack          0xa0000790      0x400 load address 0x9d02e444
                0xa0000790                _splim = .
                0xa0000790                _SPLIM = .
                0xa0000b90                . = (. + _min_stack_size)
 *fill*         0xa0000790      0x400 00
                0xa0000b90                . = ALIGN (0x8)

.ramfunc        0xa0001000        0x0 load address 0x9d02e444
                0xa0001000                _ramfunc_begin = .
 *(.ramfunc .ramfunc.*)
                0xa0001000                . = ALIGN (0x4)
                0xa0001000                _ramfunc_end = .
                0x9d02e444                _ramfunc_image_begin = LOADADDR (.ramfunc)
                0x00000000                _ramfunc_length = SIZEOF (.ramfunc)
                0x00001000                _bmxdkpba_address = (_ramfunc_begin - 0xa0000000)
                0x00008000                _bmxdudba_address = 0x8000
                0x00008000                _bmxdupba_address = 0x8000
                0xa0008000                _stack = (_ramfunc_length > 0x0)?(_ramfunc_begin - 0x4):0xa0008000
                0x00000001                ASSERT (((_min_stack_size + _min_heap_size) <= (_stack - _heap)), Not enough space to allocate both stack and heap.  Reduce heap and/or stack size.)

/DISCARD/
 *(.pdr)
 *(.reginfo)
 *(.rel.dyn)
 *(.note.GNU-stack)

.stab
 *(.stab)

.stabstr
 *(.stabstr)

.stab.excl
 *(.stab.excl)

.stab.exclstr
 *(.stab.exclstr)

.stab.index
 *(.stab.index)

.stab.indexstr
 *(.stab.indexstr)

.mdebug.abi32   0x00000000        0x0
 .mdebug.abi32  0x00000000        0x0 build/default/production/_ext/1472/UARTConfig.o
 .mdebug.abi32  0x00000000        0x0 build/default/production/_ext/1472/GenericTCPClient.o
 .mdebug.abi32  0x00000000        0x0 build/default/production/_ext/1472/GenericTCPServer.o
 .mdebug.abi32  0x00000000        0x0 build/default/production/_ext/1472/LegacyHTTPApp.o
 .mdebug.abi32  0x00000000        0x0 build/default/production/_ext/1472/PingDemo.o
 .mdebug.abi32  0x00000000        0x0 build/default/production/_ext/1472/SMTPDemo.o
 .mdebug.abi32  0x00000000        0x0 build/default/production/_ext/1472/BerkeleyUDPClientDemo.o
 .mdebug.abi32  0x00000000        0x0 build/default/production/_ext/1472/BerkeleyTCPClientDemo.o
 .mdebug.abi32  0x00000000        0x0 build/default/production/_ext/1472/BerkeleyTCPServerDemo.o
 .mdebug.abi32  0x00000000        0x0 build/default/production/_ext/1295770447/UDPPerformanceTest.o
 .mdebug.abi32  0x00000000        0x0 build/default/production/_ext/1295770447/Announce.o
 .mdebug.abi32  0x00000000        0x0 build/default/production/_ext/1295770447/ARP.o
 .mdebug.abi32  0x00000000        0x0 build/default/production/_ext/1295770447/Delay.o
 .mdebug.abi32  0x00000000        0x0 build/default/production/_ext/1295770447/DHCP.o
 .mdebug.abi32  0x00000000        0x0 build/default/production/_ext/1295770447/DHCPs.o
 .mdebug.abi32  0x00000000        0x0 build/default/production/_ext/1295770447/DNS.o
 .mdebug.abi32  0x00000000        0x0 build/default/production/_ext/1295770447/DynDNS.o
 .mdebug.abi32  0x00000000        0x0 build/default/production/_ext/1295770447/FTP.o
 .mdebug.abi32  0x00000000        0x0 build/default/production/_ext/1295770447/Hashes.o
 .mdebug.abi32  0x00000000        0x0 build/default/production/_ext/1295770447/Helpers.o
 .mdebug.abi32  0x00000000        0x0 build/default/production/_ext/1295770447/HTTP2.o
 .mdebug.abi32  0x00000000        0x0 build/default/production/_ext/1295770447/HTTP.o
 .mdebug.abi32  0x00000000        0x0 build/default/production/_ext/1295770447/ICMP.o
 .mdebug.abi32  0x00000000        0x0 build/default/production/_ext/1295770447/IP.o
 .mdebug.abi32  0x00000000        0x0 build/default/production/_ext/1295770447/LCDBlocking.o
 .mdebug.abi32  0x00000000        0x0 build/default/production/_ext/1295770447/MPFS2.o
 .mdebug.abi32  0x00000000        0x0 build/default/production/_ext/1295770447/MPFS.o
 .mdebug.abi32  0x00000000        0x0 build/default/production/_ext/1295770447/NBNS.o
 .mdebug.abi32  0x00000000        0x0 build/default/production/_ext/1295770447/Reboot.o
 .mdebug.abi32  0x00000000        0x0 build/default/production/_ext/1295770447/SMTP.o
 .mdebug.abi32  0x00000000        0x0 build/default/production/_ext/1295770447/SNMP.o
 .mdebug.abi32  0x00000000        0x0 build/default/production/_ext/1295770447/SNTP.o
 .mdebug.abi32  0x00000000        0x0 build/default/production/_ext/1295770447/StackTsk.o
 .mdebug.abi32  0x00000000        0x0 build/default/production/_ext/1295770447/TCP.o
 .mdebug.abi32  0x00000000        0x0 build/default/production/_ext/1295770447/TCPPerformanceTest.o
 .mdebug.abi32  0x00000000        0x0 build/default/production/_ext/1295770447/Telnet.o
 .mdebug.abi32  0x00000000        0x0 build/default/production/_ext/1295770447/TFTPc.o
 .mdebug.abi32  0x00000000        0x0 build/default/production/_ext/1295770447/Tick.o
 .mdebug.abi32  0x00000000        0x0 build/default/production/_ext/1295770447/UART2TCPBridge.o
 .mdebug.abi32  0x00000000        0x0 build/default/production/_ext/1295770447/UART.o
 .mdebug.abi32  0x00000000        0x0 build/default/production/_ext/1295770447/UDP.o
 .mdebug.abi32  0x00000000        0x0 build/default/production/_ext/1295770447/BerkeleyAPI.o
 .mdebug.abi32  0x00000000        0x0 build/default/production/_ext/1472/MPFSImg2.o
 .mdebug.abi32  0x00000000        0x0 build/default/production/_ext/1295770447/SSL.o
 .mdebug.abi32  0x00000000        0x0 build/default/production/_ext/1295770447/ARCFOUR.o
 .mdebug.abi32  0x00000000        0x0 build/default/production/_ext/1295770447/BigInt.o
 .mdebug.abi32  0x00000000        0x0 build/default/production/_ext/1295770447/Random.o
 .mdebug.abi32  0x00000000        0x0 build/default/production/_ext/1295770447/RSA.o
 .mdebug.abi32  0x00000000        0x0 build/default/production/_ext/1295770447/AutoIP.o
 .mdebug.abi32  0x00000000        0x0 build/default/production/_ext/1496989791/ZGDriverRaw.o
 .mdebug.abi32  0x00000000        0x0 build/default/production/_ext/1496989791/ZGAccessApp.o
 .mdebug.abi32  0x00000000        0x0 build/default/production/_ext/1496989791/ZGAccessSys.o
 .mdebug.abi32  0x00000000        0x0 build/default/production/_ext/1496989791/ZGEint.o
 .mdebug.abi32  0x00000000        0x0 build/default/production/_ext/1496989791/ZGHWReset.o
 .mdebug.abi32  0x00000000        0x0 build/default/production/_ext/1496989791/ZGSpi.o
 .mdebug.abi32  0x00000000        0x0 build/default/production/_ext/1496989791/ZG2100.o
 .mdebug.abi32  0x00000000        0x0 build/default/production/_ext/1496989791/ZGDriverCom.o
 .mdebug.abi32  0x00000000        0x0 build/default/production/_ext/1496989791/ZGDriverIFace.o
 .mdebug.abi32  0x00000000        0x0 build/default/production/_ext/1496989791/ZGDriverMac.o
 .mdebug.abi32  0x00000000        0x0 build/default/production/_ext/1496989791/ZGWifiMgrII.o
 .mdebug.abi32  0x00000000        0x0 build/default/production/_ext/1496989791/ZGAdhocMgrII.o
 .mdebug.abi32  0x00000000        0x0 build/default/production/_ext/1496989791/ZGCommon.o
 .mdebug.abi32  0x00000000        0x0 build/default/production/_ext/1496989791/ZGLibCfg.o
 .mdebug.abi32  0x00000000        0x0 build/default/production/_ext/1496989791/ZGLibIface.o
 .mdebug.abi32  0x00000000        0x0 build/default/production/_ext/1496989791/ZGLinkMgrII.o
 .mdebug.abi32  0x00000000        0x0 build/default/production/_ext/1496989791/ZGEasyConfig.o
 .mdebug.abi32  0x00000000        0x0 build/default/production/_ext/1472/MainDemo.o
 .mdebug.abi32  0x00000000        0x0 build/default/production/_ext/1472/CustomHTTPApp.o
 .mdebug.abi32  0x00000000        0x0 build/default/production/_ext/1472/CustomSNMPApp.o
 .mdebug.abi32  0x00000000        0x0 build/default/production/_ext/1472/CustomSSLCert.o
 .mdebug.abi32  0x00000000        0x0 C:/Program Files (x86)/Microchip/MPLAB C32/bin/../lib/gcc/pic32mx/3.4.4\libgcc.a(_udivdi3.o)
 .mdebug.abi32  0x00000000        0x0 C:/Program Files (x86)/Microchip/MPLAB C32/bin/../lib/gcc/pic32mx/3.4.4/../../../../pic32mx/lib\libc.a(strncmp.o)
 .mdebug.abi32  0x00000000        0x0 C:/Program Files (x86)/Microchip/MPLAB C32/bin/../lib/gcc/pic32mx/3.4.4/../../../../pic32mx/lib\libc.a(exit.o)
 .mdebug.abi32  0x00000000        0x0 C:/Program Files (x86)/Microchip/MPLAB C32/bin/../lib/gcc/pic32mx/3.4.4/../../../../pic32mx/lib\libc.a(rand.o)
 .mdebug.abi32  0x00000000        0x0 C:/Program Files (x86)/Microchip/MPLAB C32/bin/../lib/gcc/pic32mx/3.4.4/../../../../pic32mx/lib\libc.a(atol.o)
 .mdebug.abi32  0x00000000        0x0 C:/Program Files (x86)/Microchip/MPLAB C32/bin/../lib/gcc/pic32mx/3.4.4/../../../../pic32mx/lib\libc.a(atoi.o)
 .mdebug.abi32  0x00000000        0x0 C:/Program Files (x86)/Microchip/MPLAB C32/bin/../lib/gcc/pic32mx/3.4.4/../../../../pic32mx/lib\libc.a(strtol.o)
 .mdebug.abi32  0x00000000        0x0 C:/Program Files (x86)/Microchip/MPLAB C32/bin/../lib/gcc/pic32mx/3.4.4/../../../../pic32mx/lib\libc.a(stubs.o)
 .mdebug.abi32  0x00000000        0x0 C:/Program Files (x86)/Microchip/MPLAB C32/bin/../lib/gcc/pic32mx/3.4.4/../../../../pic32mx/lib\libc.a(default-bootstrap-exception-handler.o)
 .mdebug.abi32  0x00000000        0x0 C:/Program Files (x86)/Microchip/MPLAB C32/bin/../lib/gcc/pic32mx/3.4.4/../../../../pic32mx/lib\libc.a(default-on-reset.o)
 .mdebug.abi32  0x00000000        0x0 C:/Program Files (x86)/Microchip/MPLAB C32/bin/../lib/gcc/pic32mx/3.4.4/../../../../pic32mx/lib\libc.a(default-on-bootstrap.o)
 .mdebug.abi32  0x00000000        0x0 C:/Program Files (x86)/Microchip/MPLAB C32/bin/../lib/gcc/pic32mx/3.4.4/../../../../pic32mx/lib\libc.a(_exit.o)
 .mdebug.abi32  0x00000000        0x0 C:/Program Files (x86)/Microchip/MPLAB C32/bin/../lib/gcc/pic32mx/3.4.4/../../../../pic32mx/lib\libc.a(ctype.o)
 .mdebug.abi32  0x00000000        0x0 C:/Program Files (x86)/Microchip/MPLAB C32/bin/../lib/gcc/pic32mx/3.4.4/../../../../pic32mx/lib\libc.a(errno.o)
 .mdebug.abi32  0x00000000        0x0 C:/Program Files (x86)/Microchip/MPLAB C32/bin/../lib/gcc/pic32mx/3.4.4/../../../../pic32mx/lib\libmchp_peripheral_32MX460F512L.a(soft_reset_lib.o)
 .mdebug.abi32  0x00000000        0x0 C:/Program Files (x86)/Microchip/MPLAB C32/bin/../lib/gcc/pic32mx/3.4.4/../../../../pic32mx/lib\libmchp_peripheral_32MX460F512L.a(pcache.o)
 .mdebug.abi32  0x00000000        0x0 C:/Program Files (x86)/Microchip/MPLAB C32/bin/../lib/gcc/pic32mx/3.4.4/../../../../pic32mx/lib\libmchp_peripheral_32MX460F512L.a(int_disable_interrupts_lib.o)
 .mdebug.abi32  0x00000000        0x0 C:/Program Files (x86)/Microchip/MPLAB C32/bin/../lib/gcc/pic32mx/3.4.4/../../../../pic32mx/lib\libmchp_peripheral_32MX460F512L.a(int_restore_interrupts_lib.o)
 .mdebug.abi32  0x00000000        0x0 C:/Program Files (x86)/Microchip/MPLAB C32/bin/../lib/gcc/pic32mx/3.4.4/../../../../pic32mx/lib\libmchp_peripheral_32MX460F512L.a(int_enable_mv_int_lib.o)
 .mdebug.abi32  0x00000000        0x0 C:/Program Files (x86)/Microchip/MPLAB C32/bin/../lib/gcc/pic32mx/3.4.4/../../../../pic32mx/lib\libmchp_peripheral_32MX460F512L.a(puts_uartx_lib_legacy.o)
 .mdebug.abi32  0x00000000        0x0 C:/Program Files (x86)/Microchip/MPLAB C32/bin/../lib/gcc/pic32mx/3.4.4/../../../../pic32mx/lib\libmchp_peripheral_32MX460F512L.a(int_enable_interrupts_lib.o)

.comment        0x00000000     0x20db
 *(.comment)
 .comment       0x00000000       0x50 build/default/production/_ext/1472/UARTConfig.o
 .comment       0x00000050       0x50 build/default/production/_ext/1472/GenericTCPClient.o
 .comment       0x000000a0       0x50 build/default/production/_ext/1472/GenericTCPServer.o
 .comment       0x000000f0       0x50 build/default/production/_ext/1472/LegacyHTTPApp.o
 .comment       0x00000140       0x50 build/default/production/_ext/1472/PingDemo.o
 .comment       0x00000190       0x50 build/default/production/_ext/1472/SMTPDemo.o
 .comment       0x000001e0       0x50 build/default/production/_ext/1472/BerkeleyUDPClientDemo.o
 .comment       0x00000230       0x50 build/default/production/_ext/1472/BerkeleyTCPClientDemo.o
 .comment       0x00000280       0x50 build/default/production/_ext/1472/BerkeleyTCPServerDemo.o
 .comment       0x000002d0       0x50 build/default/production/_ext/1295770447/UDPPerformanceTest.o
 .comment       0x00000320       0x50 build/default/production/_ext/1295770447/Announce.o
 .comment       0x00000370       0x50 build/default/production/_ext/1295770447/ARP.o
 .comment       0x000003c0       0x50 build/default/production/_ext/1295770447/Delay.o
 .comment       0x00000410       0x50 build/default/production/_ext/1295770447/DHCP.o
 .comment       0x00000460       0x50 build/default/production/_ext/1295770447/DHCPs.o
 .comment       0x000004b0       0x50 build/default/production/_ext/1295770447/DNS.o
 .comment       0x00000500       0x50 build/default/production/_ext/1295770447/DynDNS.o
 .comment       0x00000550       0x50 build/default/production/_ext/1295770447/FTP.o
 .comment       0x000005a0       0x50 build/default/production/_ext/1295770447/Hashes.o
 .comment       0x000005f0       0x50 build/default/production/_ext/1295770447/Helpers.o
 .comment       0x00000640       0x50 build/default/production/_ext/1295770447/HTTP2.o
 .comment       0x00000690       0x50 build/default/production/_ext/1295770447/HTTP.o
 .comment       0x000006e0       0x50 build/default/production/_ext/1295770447/ICMP.o
 .comment       0x00000730       0x50 build/default/production/_ext/1295770447/IP.o
 .comment       0x00000780       0x50 build/default/production/_ext/1295770447/LCDBlocking.o
 .comment       0x000007d0       0x50 build/default/production/_ext/1295770447/MPFS2.o
 .comment       0x00000820       0x50 build/default/production/_ext/1295770447/MPFS.o
 .comment       0x00000870       0x50 build/default/production/_ext/1295770447/NBNS.o
 .comment       0x000008c0       0x50 build/default/production/_ext/1295770447/Reboot.o
 .comment       0x00000910       0x50 build/default/production/_ext/1295770447/SMTP.o
 .comment       0x00000960       0x50 build/default/production/_ext/1295770447/SNMP.o
 .comment       0x000009b0       0x50 build/default/production/_ext/1295770447/SNTP.o
 .comment       0x00000a00       0x50 build/default/production/_ext/1295770447/StackTsk.o
 .comment       0x00000a50       0x50 build/default/production/_ext/1295770447/TCP.o
 .comment       0x00000aa0       0x50 build/default/production/_ext/1295770447/TCPPerformanceTest.o
 .comment       0x00000af0       0x50 build/default/production/_ext/1295770447/Telnet.o
 .comment       0x00000b40       0x50 build/default/production/_ext/1295770447/TFTPc.o
 .comment       0x00000b90       0x50 build/default/production/_ext/1295770447/Tick.o
 .comment       0x00000be0       0x50 build/default/production/_ext/1295770447/UART2TCPBridge.o
 .comment       0x00000c30       0x50 build/default/production/_ext/1295770447/UART.o
 .comment       0x00000c80       0x50 build/default/production/_ext/1295770447/UDP.o
 .comment       0x00000cd0       0x50 build/default/production/_ext/1295770447/BerkeleyAPI.o
 .comment       0x00000d20       0x50 build/default/production/_ext/1472/MPFSImg2.o
 .comment       0x00000d70       0x50 build/default/production/_ext/1295770447/SSL.o
 .comment       0x00000dc0       0x50 build/default/production/_ext/1295770447/ARCFOUR.o
 .comment       0x00000e10       0x50 build/default/production/_ext/1295770447/BigInt.o
 .comment       0x00000e60       0x50 build/default/production/_ext/1295770447/Random.o
 .comment       0x00000eb0       0x50 build/default/production/_ext/1295770447/RSA.o
 .comment       0x00000f00       0x50 build/default/production/_ext/1295770447/AutoIP.o
 .comment       0x00000f50       0x50 build/default/production/_ext/1496989791/ZGDriverRaw.o
 .comment       0x00000fa0       0x50 build/default/production/_ext/1496989791/ZGAccessApp.o
 .comment       0x00000ff0       0x50 build/default/production/_ext/1496989791/ZGAccessSys.o
 .comment       0x00001040       0x50 build/default/production/_ext/1496989791/ZGEint.o
 .comment       0x00001090       0x50 build/default/production/_ext/1496989791/ZGHWReset.o
 .comment       0x000010e0       0x50 build/default/production/_ext/1496989791/ZGSpi.o
 .comment       0x00001130       0x50 build/default/production/_ext/1496989791/ZG2100.o
 .comment       0x00001180       0x50 build/default/production/_ext/1496989791/ZGDriverCom.o
 .comment       0x000011d0       0x50 build/default/production/_ext/1496989791/ZGDriverIFace.o
 .comment       0x00001220       0x50 build/default/production/_ext/1496989791/ZGDriverMac.o
 .comment       0x00001270       0x50 build/default/production/_ext/1496989791/ZGWifiMgrII.o
 .comment       0x000012c0       0x50 build/default/production/_ext/1496989791/ZGAdhocMgrII.o
 .comment       0x00001310       0x50 build/default/production/_ext/1496989791/ZGCommon.o
 .comment       0x00001360       0x50 build/default/production/_ext/1496989791/ZGLibCfg.o
 .comment       0x000013b0       0x50 build/default/production/_ext/1496989791/ZGLibIface.o
 .comment       0x00001400       0x50 build/default/production/_ext/1496989791/ZGLinkMgrII.o
 .comment       0x00001450       0x50 build/default/production/_ext/1496989791/ZGEasyConfig.o
 .comment       0x000014a0       0x50 build/default/production/_ext/1472/MainDemo.o
 .comment       0x000014f0       0x50 build/default/production/_ext/1472/CustomHTTPApp.o
 .comment       0x00001540       0x50 build/default/production/_ext/1472/CustomSNMPApp.o
 .comment       0x00001590       0x50 build/default/production/_ext/1472/CustomSSLCert.o
 .comment       0x000015e0       0x50 C:/Program Files (x86)/Microchip/MPLAB C32/bin/../lib/gcc/pic32mx/3.4.4\libgcc.a(_udivdi3.o)
 .comment       0x00001630       0x56 C:/Program Files (x86)/Microchip/MPLAB C32/bin/../lib/gcc/pic32mx/3.4.4/../../../../pic32mx/lib\libc.a(memcmp.o)
 .comment       0x00001686       0x56 C:/Program Files (x86)/Microchip/MPLAB C32/bin/../lib/gcc/pic32mx/3.4.4/../../../../pic32mx/lib\libc.a(memset.o)
 .comment       0x000016dc       0x56 C:/Program Files (x86)/Microchip/MPLAB C32/bin/../lib/gcc/pic32mx/3.4.4/../../../../pic32mx/lib\libc.a(strcmp.o)
 .comment       0x00001732       0x56 C:/Program Files (x86)/Microchip/MPLAB C32/bin/../lib/gcc/pic32mx/3.4.4/../../../../pic32mx/lib\libc.a(strcpy.o)
 .comment       0x00001788       0x56 C:/Program Files (x86)/Microchip/MPLAB C32/bin/../lib/gcc/pic32mx/3.4.4/../../../../pic32mx/lib\libc.a(strlen.o)
 .comment       0x000017de       0xa0 C:/Program Files (x86)/Microchip/MPLAB C32/bin/../lib/gcc/pic32mx/3.4.4/../../../../pic32mx/lib\libc.a(strncmp.o)
 .comment       0x0000187e       0x9d C:/Program Files (x86)/Microchip/MPLAB C32/bin/../lib/gcc/pic32mx/3.4.4/../../../../pic32mx/lib\libc.a(exit.o)
 .comment       0x0000191b       0x9d C:/Program Files (x86)/Microchip/MPLAB C32/bin/../lib/gcc/pic32mx/3.4.4/../../../../pic32mx/lib\libc.a(rand.o)
 .comment       0x000019b8       0x9d C:/Program Files (x86)/Microchip/MPLAB C32/bin/../lib/gcc/pic32mx/3.4.4/../../../../pic32mx/lib\libc.a(atol.o)
 .comment       0x00001a55       0x9d C:/Program Files (x86)/Microchip/MPLAB C32/bin/../lib/gcc/pic32mx/3.4.4/../../../../pic32mx/lib\libc.a(atoi.o)
 .comment       0x00001af2       0x9f C:/Program Files (x86)/Microchip/MPLAB C32/bin/../lib/gcc/pic32mx/3.4.4/../../../../pic32mx/lib\libc.a(strtol.o)
 .comment       0x00001b91       0x9e C:/Program Files (x86)/Microchip/MPLAB C32/bin/../lib/gcc/pic32mx/3.4.4/../../../../pic32mx/lib\libc.a(stubs.o)
 .comment       0x00001c2f       0x50 C:/Program Files (x86)/Microchip/MPLAB C32/bin/../lib/gcc/pic32mx/3.4.4/../../../../pic32mx/lib\libc.a(default-bootstrap-exception-handler.o)
 .comment       0x00001c7f       0x50 C:/Program Files (x86)/Microchip/MPLAB C32/bin/../lib/gcc/pic32mx/3.4.4/../../../../pic32mx/lib\libc.a(default-on-reset.o)
 .comment       0x00001ccf       0x50 C:/Program Files (x86)/Microchip/MPLAB C32/bin/../lib/gcc/pic32mx/3.4.4/../../../../pic32mx/lib\libc.a(default-on-bootstrap.o)
 .comment       0x00001d1f       0x50 C:/Program Files (x86)/Microchip/MPLAB C32/bin/../lib/gcc/pic32mx/3.4.4/../../../../pic32mx/lib\libc.a(_exit.o)
 .comment       0x00001d6f       0x9e C:/Program Files (x86)/Microchip/MPLAB C32/bin/../lib/gcc/pic32mx/3.4.4/../../../../pic32mx/lib\libc.a(ctype.o)
 .comment       0x00001e0d       0x9e C:/Program Files (x86)/Microchip/MPLAB C32/bin/../lib/gcc/pic32mx/3.4.4/../../../../pic32mx/lib\libc.a(errno.o)
 .comment       0x00001eab       0x50 C:/Program Files (x86)/Microchip/MPLAB C32/bin/../lib/gcc/pic32mx/3.4.4/../../../../pic32mx/lib\libmchp_peripheral_32MX460F512L.a(soft_reset_lib.o)
 .comment       0x00001efb       0x50 C:/Program Files (x86)/Microchip/MPLAB C32/bin/../lib/gcc/pic32mx/3.4.4/../../../../pic32mx/lib\libmchp_peripheral_32MX460F512L.a(pcache.o)
 .comment       0x00001f4b       0x50 C:/Program Files (x86)/Microchip/MPLAB C32/bin/../lib/gcc/pic32mx/3.4.4/../../../../pic32mx/lib\libmchp_peripheral_32MX460F512L.a(int_disable_interrupts_lib.o)
 .comment       0x00001f9b       0x50 C:/Program Files (x86)/Microchip/MPLAB C32/bin/../lib/gcc/pic32mx/3.4.4/../../../../pic32mx/lib\libmchp_peripheral_32MX460F512L.a(int_restore_interrupts_lib.o)
 .comment       0x00001feb       0x50 C:/Program Files (x86)/Microchip/MPLAB C32/bin/../lib/gcc/pic32mx/3.4.4/../../../../pic32mx/lib\libmchp_peripheral_32MX460F512L.a(int_enable_mv_int_lib.o)
 .comment       0x0000203b       0x50 C:/Program Files (x86)/Microchip/MPLAB C32/bin/../lib/gcc/pic32mx/3.4.4/../../../../pic32mx/lib\libmchp_peripheral_32MX460F512L.a(puts_uartx_lib_legacy.o)
 .comment       0x0000208b       0x50 C:/Program Files (x86)/Microchip/MPLAB C32/bin/../lib/gcc/pic32mx/3.4.4/../../../../pic32mx/lib\libmchp_peripheral_32MX460F512L.a(int_enable_interrupts_lib.o)

.debug
 *(.debug)

.line
 *(.line)

.debug_srcinfo
 *(.debug_srcinfo)

.debug_sfnames
 *(.debug_sfnames)

.debug_aranges  0x00000000      0x8d8
 *(.debug_aranges)
 .debug_aranges
                0x00000000       0x20 build/default/production/_ext/1472/UARTConfig.o
 .debug_aranges
                0x00000020       0x20 build/default/production/_ext/1472/GenericTCPClient.o
 .debug_aranges
                0x00000040       0x20 build/default/production/_ext/1472/GenericTCPServer.o
 .debug_aranges
                0x00000060       0x20 build/default/production/_ext/1295770447/Announce.o
 .debug_aranges
                0x00000080       0x20 build/default/production/_ext/1295770447/ARP.o
 .debug_aranges
                0x000000a0       0x20 build/default/production/_ext/1295770447/Delay.o
 .debug_aranges
                0x000000c0       0x20 build/default/production/_ext/1295770447/DHCP.o
 .debug_aranges
                0x000000e0       0x20 build/default/production/_ext/1295770447/DHCPs.o
 .debug_aranges
                0x00000100       0x20 build/default/production/_ext/1295770447/DNS.o
 .debug_aranges
                0x00000120       0x20 build/default/production/_ext/1295770447/Hashes.o
 .debug_aranges
                0x00000140       0x20 build/default/production/_ext/1295770447/Helpers.o
 .debug_aranges
                0x00000160       0x20 build/default/production/_ext/1295770447/HTTP2.o
 .debug_aranges
                0x00000180       0x20 build/default/production/_ext/1295770447/ICMP.o
 .debug_aranges
                0x000001a0       0x20 build/default/production/_ext/1295770447/IP.o
 .debug_aranges
                0x000001c0       0x20 build/default/production/_ext/1295770447/LCDBlocking.o
 .debug_aranges
                0x000001e0       0x20 build/default/production/_ext/1295770447/MPFS2.o
 .debug_aranges
                0x00000200       0x20 build/default/production/_ext/1295770447/NBNS.o
 .debug_aranges
                0x00000220       0x20 build/default/production/_ext/1295770447/Reboot.o
 .debug_aranges
                0x00000240       0x20 build/default/production/_ext/1295770447/StackTsk.o
 .debug_aranges
                0x00000260       0x20 build/default/production/_ext/1295770447/TCP.o
 .debug_aranges
                0x00000280       0x20 build/default/production/_ext/1295770447/TCPPerformanceTest.o
 .debug_aranges
                0x000002a0       0x20 build/default/production/_ext/1295770447/Telnet.o
 .debug_aranges
                0x000002c0       0x20 build/default/production/_ext/1295770447/Tick.o
 .debug_aranges
                0x000002e0       0x20 build/default/production/_ext/1295770447/UART.o
 .debug_aranges
                0x00000300       0x20 build/default/production/_ext/1295770447/UDP.o
 .debug_aranges
                0x00000320       0x20 build/default/production/_ext/1295770447/AutoIP.o
 .debug_aranges
                0x00000340       0x20 build/default/production/_ext/1496989791/ZGDriverRaw.o
 .debug_aranges
                0x00000360       0x20 build/default/production/_ext/1496989791/ZGAccessSys.o
 .debug_aranges
                0x00000380       0x20 build/default/production/_ext/1496989791/ZGEint.o
 .debug_aranges
                0x000003a0       0x20 build/default/production/_ext/1496989791/ZGHWReset.o
 .debug_aranges
                0x000003c0       0x20 build/default/production/_ext/1496989791/ZGSpi.o
 .debug_aranges
                0x000003e0       0x20 build/default/production/_ext/1496989791/ZG2100.o
 .debug_aranges
                0x00000400       0x20 build/default/production/_ext/1496989791/ZGDriverCom.o
 .debug_aranges
                0x00000420       0x20 build/default/production/_ext/1496989791/ZGDriverIFace.o
 .debug_aranges
                0x00000440       0x20 build/default/production/_ext/1496989791/ZGDriverMac.o
 .debug_aranges
                0x00000460       0x20 build/default/production/_ext/1496989791/ZGWifiMgrII.o
 .debug_aranges
                0x00000480       0x20 build/default/production/_ext/1496989791/ZGCommon.o
 .debug_aranges
                0x000004a0       0x20 build/default/production/_ext/1496989791/ZGLibCfg.o
 .debug_aranges
                0x000004c0       0x20 build/default/production/_ext/1496989791/ZGLibIface.o
 .debug_aranges
                0x000004e0       0x20 build/default/production/_ext/1496989791/ZGLinkMgrII.o
 .debug_aranges
                0x00000500       0x20 build/default/production/_ext/1472/MainDemo.o
 .debug_aranges
                0x00000520       0x20 build/default/production/_ext/1472/CustomHTTPApp.o
 .debug_aranges
                0x00000540       0x28 C:/Program Files (x86)/Microchip/MPLAB C32/bin/../lib/gcc/pic32mx/3.4.4/../../../../pic32mx/lib\libc.a(strncmp.o)
 .debug_aranges
                0x00000568       0x28 C:/Program Files (x86)/Microchip/MPLAB C32/bin/../lib/gcc/pic32mx/3.4.4/../../../../pic32mx/lib\libc.a(exit.o)
 .debug_aranges
                0x00000590       0x38 C:/Program Files (x86)/Microchip/MPLAB C32/bin/../lib/gcc/pic32mx/3.4.4/../../../../pic32mx/lib\libc.a(rand.o)
 .debug_aranges
                0x000005c8       0x28 C:/Program Files (x86)/Microchip/MPLAB C32/bin/../lib/gcc/pic32mx/3.4.4/../../../../pic32mx/lib\libc.a(atol.o)
 .debug_aranges
                0x000005f0       0x28 C:/Program Files (x86)/Microchip/MPLAB C32/bin/../lib/gcc/pic32mx/3.4.4/../../../../pic32mx/lib\libc.a(atoi.o)
 .debug_aranges
                0x00000618       0x28 C:/Program Files (x86)/Microchip/MPLAB C32/bin/../lib/gcc/pic32mx/3.4.4/../../../../pic32mx/lib\libc.a(strtol.o)
 .debug_aranges
                0x00000640       0xd0 C:/Program Files (x86)/Microchip/MPLAB C32/bin/../lib/gcc/pic32mx/3.4.4/../../../../pic32mx/lib\libc.a(stubs.o)
 .debug_aranges
                0x00000710       0x28 C:/Program Files (x86)/Microchip/MPLAB C32/bin/../lib/gcc/pic32mx/3.4.4/../../../../pic32mx/lib\libc.a(default-bootstrap-exception-handler.o)
 .debug_aranges
                0x00000738       0x28 C:/Program Files (x86)/Microchip/MPLAB C32/bin/../lib/gcc/pic32mx/3.4.4/../../../../pic32mx/lib\libc.a(default-on-reset.o)
 .debug_aranges
                0x00000760       0x28 C:/Program Files (x86)/Microchip/MPLAB C32/bin/../lib/gcc/pic32mx/3.4.4/../../../../pic32mx/lib\libc.a(default-on-bootstrap.o)
 .debug_aranges
                0x00000788       0x28 C:/Program Files (x86)/Microchip/MPLAB C32/bin/../lib/gcc/pic32mx/3.4.4/../../../../pic32mx/lib\libc.a(_exit.o)
 .debug_aranges
                0x000007b0       0x28 C:/Program Files (x86)/Microchip/MPLAB C32/bin/../lib/gcc/pic32mx/3.4.4/../../../../pic32mx/lib\libmchp_peripheral_32MX460F512L.a(soft_reset_lib.o)
 .debug_aranges
                0x000007d8       0x30 C:/Program Files (x86)/Microchip/MPLAB C32/bin/../lib/gcc/pic32mx/3.4.4/../../../../pic32mx/lib\libmchp_peripheral_32MX460F512L.a(pcache.o)
 .debug_aranges
                0x00000808       0x28 C:/Program Files (x86)/Microchip/MPLAB C32/bin/../lib/gcc/pic32mx/3.4.4/../../../../pic32mx/lib\libmchp_peripheral_32MX460F512L.a(int_disable_interrupts_lib.o)
 .debug_aranges
                0x00000830       0x28 C:/Program Files (x86)/Microchip/MPLAB C32/bin/../lib/gcc/pic32mx/3.4.4/../../../../pic32mx/lib\libmchp_peripheral_32MX460F512L.a(int_restore_interrupts_lib.o)
 .debug_aranges
                0x00000858       0x28 C:/Program Files (x86)/Microchip/MPLAB C32/bin/../lib/gcc/pic32mx/3.4.4/../../../../pic32mx/lib\libmchp_peripheral_32MX460F512L.a(int_enable_mv_int_lib.o)
 .debug_aranges
                0x00000880       0x30 C:/Program Files (x86)/Microchip/MPLAB C32/bin/../lib/gcc/pic32mx/3.4.4/../../../../pic32mx/lib\libmchp_peripheral_32MX460F512L.a(puts_uartx_lib_legacy.o)
 .debug_aranges
                0x000008b0       0x28 C:/Program Files (x86)/Microchip/MPLAB C32/bin/../lib/gcc/pic32mx/3.4.4/../../../../pic32mx/lib\libmchp_peripheral_32MX460F512L.a(int_enable_interrupts_lib.o)

.debug_pubnames
                0x00000000     0x276b
 *(.debug_pubnames)
 .debug_pubnames
                0x00000000       0x23 build/default/production/_ext/1472/UARTConfig.o
 .debug_pubnames
                0x00000023       0x27 build/default/production/_ext/1472/GenericTCPClient.o
 .debug_pubnames
                0x0000004a       0x27 build/default/production/_ext/1472/GenericTCPServer.o
 .debug_pubnames
                0x00000071       0x33 build/default/production/_ext/1295770447/Announce.o
 .debug_pubnames
                0x000000a4       0x60 build/default/production/_ext/1295770447/ARP.o
 .debug_pubnames
                0x00000104       0x2c build/default/production/_ext/1295770447/Delay.o
 .debug_pubnames
                0x00000130       0xb9 build/default/production/_ext/1295770447/DHCP.o
 .debug_pubnames
                0x000001e9       0x3c build/default/production/_ext/1295770447/DHCPs.o
 .debug_pubnames
                0x00000225       0x55 build/default/production/_ext/1295770447/DNS.o
 .debug_pubnames
                0x0000027a       0x62 build/default/production/_ext/1295770447/Hashes.o
 .debug_pubnames
                0x000002dc      0x112 build/default/production/_ext/1295770447/Helpers.o
 .debug_pubnames
                0x000003ee       0xcf build/default/production/_ext/1295770447/HTTP2.o
 .debug_pubnames
                0x000004bd       0x22 build/default/production/_ext/1295770447/ICMP.o
 .debug_pubnames
                0x000004df       0x44 build/default/production/_ext/1295770447/IP.o
 .debug_pubnames
                0x00000523       0x45 build/default/production/_ext/1295770447/LCDBlocking.o
 .debug_pubnames
                0x00000568      0x140 build/default/production/_ext/1295770447/MPFS2.o
 .debug_pubnames
                0x000006a8       0x1f build/default/production/_ext/1295770447/NBNS.o
 .debug_pubnames
                0x000006c7       0x21 build/default/production/_ext/1295770447/Reboot.o
 .debug_pubnames
                0x000006e8       0x53 build/default/production/_ext/1295770447/StackTsk.o
 .debug_pubnames
                0x0000073b      0x1ba build/default/production/_ext/1295770447/TCP.o
 .debug_pubnames
                0x000008f5       0x5b build/default/production/_ext/1295770447/TCPPerformanceTest.o
 .debug_pubnames
                0x00000950       0x21 build/default/production/_ext/1295770447/Telnet.o
 .debug_pubnames
                0x00000971       0x7e build/default/production/_ext/1295770447/Tick.o
 .debug_pubnames
                0x000009ef       0x25 build/default/production/_ext/1295770447/UART.o
 .debug_pubnames
                0x00000a14      0x143 build/default/production/_ext/1295770447/UDP.o
 .debug_pubnames
                0x00000b57       0x21 build/default/production/_ext/1472/MPFSImg2.o
 .debug_pubnames
                0x00000b78       0xd2 build/default/production/_ext/1295770447/AutoIP.o
 .debug_pubnames
                0x00000c4a       0xc3 build/default/production/_ext/1496989791/ZGDriverRaw.o
 .debug_pubnames
                0x00000d0d       0x25 build/default/production/_ext/1496989791/ZGAccessSys.o
 .debug_pubnames
                0x00000d32       0xa5 build/default/production/_ext/1496989791/ZGEint.o
 .debug_pubnames
                0x00000dd7       0x2e build/default/production/_ext/1496989791/ZGHWReset.o
 .debug_pubnames
                0x00000e05      0x123 build/default/production/_ext/1496989791/ZGSpi.o
 .debug_pubnames
                0x00000f28      0x29f build/default/production/_ext/1496989791/ZG2100.o
 .debug_pubnames
                0x000011c7      0x155 build/default/production/_ext/1496989791/ZGDriverCom.o
 .debug_pubnames
                0x0000131c      0x125 build/default/production/_ext/1496989791/ZGDriverIFace.o
 .debug_pubnames
                0x00001441       0x73 build/default/production/_ext/1496989791/ZGDriverMac.o
 .debug_pubnames
                0x000014b4      0x140 build/default/production/_ext/1496989791/ZGWifiMgrII.o
 .debug_pubnames
                0x000015f4      0x1d9 build/default/production/_ext/1496989791/ZGCommon.o
 .debug_pubnames
                0x000017cd      0x2e9 build/default/production/_ext/1496989791/ZGLibCfg.o
 .debug_pubnames
                0x00001ab6      0x26c build/default/production/_ext/1496989791/ZGLibIface.o
 .debug_pubnames
                0x00001d22       0xc7 build/default/production/_ext/1496989791/ZGLinkMgrII.o
 .debug_pubnames
                0x00001de9       0x78 build/default/production/_ext/1472/MainDemo.o
 .debug_pubnames
                0x00001e61      0x3a2 build/default/production/_ext/1472/CustomHTTPApp.o
 .debug_pubnames
                0x00002203       0x1e C:/Program Files (x86)/Microchip/MPLAB C32/bin/../lib/gcc/pic32mx/3.4.4/../../../../pic32mx/lib\libc.a(strncmp.o)
 .debug_pubnames
                0x00002221       0x1b C:/Program Files (x86)/Microchip/MPLAB C32/bin/../lib/gcc/pic32mx/3.4.4/../../../../pic32mx/lib\libc.a(exit.o)
 .debug_pubnames
                0x0000223c       0x30 C:/Program Files (x86)/Microchip/MPLAB C32/bin/../lib/gcc/pic32mx/3.4.4/../../../../pic32mx/lib\libc.a(rand.o)
 .debug_pubnames
                0x0000226c       0x1b C:/Program Files (x86)/Microchip/MPLAB C32/bin/../lib/gcc/pic32mx/3.4.4/../../../../pic32mx/lib\libc.a(atol.o)
 .debug_pubnames
                0x00002287       0x1b C:/Program Files (x86)/Microchip/MPLAB C32/bin/../lib/gcc/pic32mx/3.4.4/../../../../pic32mx/lib\libc.a(atoi.o)
 .debug_pubnames
                0x000022a2       0x1d C:/Program Files (x86)/Microchip/MPLAB C32/bin/../lib/gcc/pic32mx/3.4.4/../../../../pic32mx/lib\libc.a(strtol.o)
 .debug_pubnames
                0x000022bf      0x2da C:/Program Files (x86)/Microchip/MPLAB C32/bin/../lib/gcc/pic32mx/3.4.4/../../../../pic32mx/lib\libc.a(stubs.o)
 .debug_pubnames
                0x00002599       0x33 C:/Program Files (x86)/Microchip/MPLAB C32/bin/../lib/gcc/pic32mx/3.4.4/../../../../pic32mx/lib\libc.a(default-bootstrap-exception-handler.o)
 .debug_pubnames
                0x000025cc       0x20 C:/Program Files (x86)/Microchip/MPLAB C32/bin/../lib/gcc/pic32mx/3.4.4/../../../../pic32mx/lib\libc.a(default-on-reset.o)
 .debug_pubnames
                0x000025ec       0x24 C:/Program Files (x86)/Microchip/MPLAB C32/bin/../lib/gcc/pic32mx/3.4.4/../../../../pic32mx/lib\libc.a(default-on-bootstrap.o)
 .debug_pubnames
                0x00002610       0x1c C:/Program Files (x86)/Microchip/MPLAB C32/bin/../lib/gcc/pic32mx/3.4.4/../../../../pic32mx/lib\libc.a(_exit.o)
 .debug_pubnames
                0x0000262c       0x20 C:/Program Files (x86)/Microchip/MPLAB C32/bin/../lib/gcc/pic32mx/3.4.4/../../../../pic32mx/lib\libmchp_peripheral_32MX460F512L.a(soft_reset_lib.o)
 .debug_pubnames
                0x0000264c       0x3b C:/Program Files (x86)/Microchip/MPLAB C32/bin/../lib/gcc/pic32mx/3.4.4/../../../../pic32mx/lib\libmchp_peripheral_32MX460F512L.a(pcache.o)
 .debug_pubnames
                0x00002687       0x2b C:/Program Files (x86)/Microchip/MPLAB C32/bin/../lib/gcc/pic32mx/3.4.4/../../../../pic32mx/lib\libmchp_peripheral_32MX460F512L.a(int_disable_interrupts_lib.o)
 .debug_pubnames
                0x000026b2       0x2b C:/Program Files (x86)/Microchip/MPLAB C32/bin/../lib/gcc/pic32mx/3.4.4/../../../../pic32mx/lib\libmchp_peripheral_32MX460F512L.a(int_restore_interrupts_lib.o)
 .debug_pubnames
                0x000026dd       0x36 C:/Program Files (x86)/Microchip/MPLAB C32/bin/../lib/gcc/pic32mx/3.4.4/../../../../pic32mx/lib\libmchp_peripheral_32MX460F512L.a(int_enable_mv_int_lib.o)
 .debug_pubnames
                0x00002713       0x2e C:/Program Files (x86)/Microchip/MPLAB C32/bin/../lib/gcc/pic32mx/3.4.4/../../../../pic32mx/lib\libmchp_peripheral_32MX460F512L.a(puts_uartx_lib_legacy.o)
 .debug_pubnames
                0x00002741       0x2a C:/Program Files (x86)/Microchip/MPLAB C32/bin/../lib/gcc/pic32mx/3.4.4/../../../../pic32mx/lib\libmchp_peripheral_32MX460F512L.a(int_enable_interrupts_lib.o)

.debug_info     0x00000000    0x38096
 *(.debug_info .gnu.linkonce.wi.*)
 .debug_info    0x00000000      0xe86 build/default/production/_ext/1472/UARTConfig.o
 .debug_info    0x00000e86      0x891 build/default/production/_ext/1472/GenericTCPClient.o
 .debug_info    0x00001717      0x7c9 build/default/production/_ext/1472/GenericTCPServer.o
 .debug_info    0x00001ee0      0x68c build/default/production/_ext/1472/LegacyHTTPApp.o
 .debug_info    0x0000256c      0x687 build/default/production/_ext/1472/PingDemo.o
 .debug_info    0x00002bf3      0x687 build/default/production/_ext/1472/SMTPDemo.o
 .debug_info    0x0000327a      0x694 build/default/production/_ext/1472/BerkeleyUDPClientDemo.o
 .debug_info    0x0000390e      0x694 build/default/production/_ext/1472/BerkeleyTCPClientDemo.o
 .debug_info    0x00003fa2      0x694 build/default/production/_ext/1472/BerkeleyTCPServerDemo.o
 .debug_info    0x00004636      0x6aa build/default/production/_ext/1295770447/UDPPerformanceTest.o
 .debug_info    0x00004ce0      0xf55 build/default/production/_ext/1295770447/Announce.o
 .debug_info    0x00005c35     0x1066 build/default/production/_ext/1295770447/ARP.o
 .debug_info    0x00006c9b      0x732 build/default/production/_ext/1295770447/Delay.o
 .debug_info    0x000073cd     0x1512 build/default/production/_ext/1295770447/DHCP.o
 .debug_info    0x000088df     0x10de build/default/production/_ext/1295770447/DHCPs.o
 .debug_info    0x000099bd     0x12e6 build/default/production/_ext/1295770447/DNS.o
 .debug_info    0x0000aca3      0x69e build/default/production/_ext/1295770447/DynDNS.o
 .debug_info    0x0000b341      0x69b build/default/production/_ext/1295770447/FTP.o
 .debug_info    0x0000b9dc      0xa81 build/default/production/_ext/1295770447/Hashes.o
 .debug_info    0x0000c45d     0x13c6 build/default/production/_ext/1295770447/Helpers.o
 .debug_info    0x0000d823     0x1436 build/default/production/_ext/1295770447/HTTP2.o
 .debug_info    0x0000ec59      0x69c build/default/production/_ext/1295770447/HTTP.o
 .debug_info    0x0000f2f5      0xc92 build/default/production/_ext/1295770447/ICMP.o
 .debug_info    0x0000ff87     0x10ef build/default/production/_ext/1295770447/IP.o
 .debug_info    0x00011076      0x88d build/default/production/_ext/1295770447/LCDBlocking.o
 .debug_info    0x00011903      0xe4f build/default/production/_ext/1295770447/MPFS2.o
 .debug_info    0x00012752      0x69c build/default/production/_ext/1295770447/MPFS.o
 .debug_info    0x00012dee     0x108c build/default/production/_ext/1295770447/NBNS.o
 .debug_info    0x00013e7a      0xecf build/default/production/_ext/1295770447/Reboot.o
 .debug_info    0x00014d49      0x69c build/default/production/_ext/1295770447/SMTP.o
 .debug_info    0x000153e5      0x69c build/default/production/_ext/1295770447/SNMP.o
 .debug_info    0x00015a81      0x69c build/default/production/_ext/1295770447/SNTP.o
 .debug_info    0x0001611d      0xf74 build/default/production/_ext/1295770447/StackTsk.o
 .debug_info    0x00017091     0x2700 build/default/production/_ext/1295770447/TCP.o
 .debug_info    0x00019791      0xdc0 build/default/production/_ext/1295770447/TCPPerformanceTest.o
 .debug_info    0x0001a551      0xac5 build/default/production/_ext/1295770447/Telnet.o
 .debug_info    0x0001b016      0x69d build/default/production/_ext/1295770447/TFTPc.o
 .debug_info    0x0001b6b3      0xe55 build/default/production/_ext/1295770447/Tick.o
 .debug_info    0x0001c508      0x6a6 build/default/production/_ext/1295770447/UART2TCPBridge.o
 .debug_info    0x0001cbae      0x762 build/default/production/_ext/1295770447/UART.o
 .debug_info    0x0001d310     0x1569 build/default/production/_ext/1295770447/UDP.o
 .debug_info    0x0001e879      0x6a3 build/default/production/_ext/1295770447/BerkeleyAPI.o
 .debug_info    0x0001ef1c      0x6c9 build/default/production/_ext/1472/MPFSImg2.o
 .debug_info    0x0001f5e5      0x69b build/default/production/_ext/1295770447/SSL.o
 .debug_info    0x0001fc80      0x69f build/default/production/_ext/1295770447/ARCFOUR.o
 .debug_info    0x0002031f      0x69e build/default/production/_ext/1295770447/BigInt.o
 .debug_info    0x000209bd      0x69e build/default/production/_ext/1295770447/Random.o
 .debug_info    0x0002105b      0x69b build/default/production/_ext/1295770447/RSA.o
 .debug_info    0x000216f6     0x13a2 build/default/production/_ext/1295770447/AutoIP.o
 .debug_info    0x00022a98      0xe91 build/default/production/_ext/1496989791/ZGDriverRaw.o
 .debug_info    0x00023929      0x6a9 build/default/production/_ext/1496989791/ZGAccessApp.o
 .debug_info    0x00023fd2      0x71d build/default/production/_ext/1496989791/ZGAccessSys.o
 .debug_info    0x000246ef      0x8df build/default/production/_ext/1496989791/ZGEint.o
 .debug_info    0x00024fce      0x6d2 build/default/production/_ext/1496989791/ZGHWReset.o
 .debug_info    0x000256a0      0xde0 build/default/production/_ext/1496989791/ZGSpi.o
 .debug_info    0x00026480     0x1cad build/default/production/_ext/1496989791/ZG2100.o
 .debug_info    0x0002812d     0x112a build/default/production/_ext/1496989791/ZGDriverCom.o
 .debug_info    0x00029257     0x1069 build/default/production/_ext/1496989791/ZGDriverIFace.o
 .debug_info    0x0002a2c0      0xb8b build/default/production/_ext/1496989791/ZGDriverMac.o
 .debug_info    0x0002ae4b     0x1742 build/default/production/_ext/1496989791/ZGWifiMgrII.o
 .debug_info    0x0002c58d      0x6aa build/default/production/_ext/1496989791/ZGAdhocMgrII.o
 .debug_info    0x0002cc37     0x224e build/default/production/_ext/1496989791/ZGCommon.o
 .debug_info    0x0002ee85     0x178f build/default/production/_ext/1496989791/ZGLibCfg.o
 .debug_info    0x00030614     0x1eab build/default/production/_ext/1496989791/ZGLibIface.o
 .debug_info    0x000324bf     0x1021 build/default/production/_ext/1496989791/ZGLinkMgrII.o
 .debug_info    0x000334e0      0x6aa build/default/production/_ext/1496989791/ZGEasyConfig.o
 .debug_info    0x00033b8a     0x15a7 build/default/production/_ext/1472/MainDemo.o
 .debug_info    0x00035131     0x1d2b build/default/production/_ext/1472/CustomHTTPApp.o
 .debug_info    0x00036e5c      0x68c build/default/production/_ext/1472/CustomSNMPApp.o
 .debug_info    0x000374e8      0x68c build/default/production/_ext/1472/CustomSSLCert.o
 .debug_info    0x00037b74       0x30 C:/Program Files (x86)/Microchip/MPLAB C32/bin/../lib/gcc/pic32mx/3.4.4/../../../../pic32mx/lib\libc.a(strncmp.o)
 .debug_info    0x00037ba4       0x30 C:/Program Files (x86)/Microchip/MPLAB C32/bin/../lib/gcc/pic32mx/3.4.4/../../../../pic32mx/lib\libc.a(exit.o)
 .debug_info    0x00037bd4       0x54 C:/Program Files (x86)/Microchip/MPLAB C32/bin/../lib/gcc/pic32mx/3.4.4/../../../../pic32mx/lib\libc.a(rand.o)
 .debug_info    0x00037c28       0x30 C:/Program Files (x86)/Microchip/MPLAB C32/bin/../lib/gcc/pic32mx/3.4.4/../../../../pic32mx/lib\libc.a(atol.o)
 .debug_info    0x00037c58       0x30 C:/Program Files (x86)/Microchip/MPLAB C32/bin/../lib/gcc/pic32mx/3.4.4/../../../../pic32mx/lib\libc.a(atoi.o)
 .debug_info    0x00037c88       0x30 C:/Program Files (x86)/Microchip/MPLAB C32/bin/../lib/gcc/pic32mx/3.4.4/../../../../pic32mx/lib\libc.a(strtol.o)
 .debug_info    0x00037cb8      0x1aa C:/Program Files (x86)/Microchip/MPLAB C32/bin/../lib/gcc/pic32mx/3.4.4/../../../../pic32mx/lib\libc.a(stubs.o)
 .debug_info    0x00037e62       0x30 C:/Program Files (x86)/Microchip/MPLAB C32/bin/../lib/gcc/pic32mx/3.4.4/../../../../pic32mx/lib\libc.a(default-bootstrap-exception-handler.o)
 .debug_info    0x00037e92       0x30 C:/Program Files (x86)/Microchip/MPLAB C32/bin/../lib/gcc/pic32mx/3.4.4/../../../../pic32mx/lib\libc.a(default-on-reset.o)
 .debug_info    0x00037ec2       0x30 C:/Program Files (x86)/Microchip/MPLAB C32/bin/../lib/gcc/pic32mx/3.4.4/../../../../pic32mx/lib\libc.a(default-on-bootstrap.o)
 .debug_info    0x00037ef2       0x30 C:/Program Files (x86)/Microchip/MPLAB C32/bin/../lib/gcc/pic32mx/3.4.4/../../../../pic32mx/lib\libc.a(_exit.o)
 .debug_info    0x00037f22        0x0 C:/Program Files (x86)/Microchip/MPLAB C32/bin/../lib/gcc/pic32mx/3.4.4/../../../../pic32mx/lib\libc.a(ctype.o)
 .debug_info    0x00037f22        0x0 C:/Program Files (x86)/Microchip/MPLAB C32/bin/../lib/gcc/pic32mx/3.4.4/../../../../pic32mx/lib\libc.a(errno.o)
 .debug_info    0x00037f22       0x30 C:/Program Files (x86)/Microchip/MPLAB C32/bin/../lib/gcc/pic32mx/3.4.4/../../../../pic32mx/lib\libmchp_peripheral_32MX460F512L.a(soft_reset_lib.o)
 .debug_info    0x00037f52       0x42 C:/Program Files (x86)/Microchip/MPLAB C32/bin/../lib/gcc/pic32mx/3.4.4/../../../../pic32mx/lib\libmchp_peripheral_32MX460F512L.a(pcache.o)
 .debug_info    0x00037f94       0x30 C:/Program Files (x86)/Microchip/MPLAB C32/bin/../lib/gcc/pic32mx/3.4.4/../../../../pic32mx/lib\libmchp_peripheral_32MX460F512L.a(int_disable_interrupts_lib.o)
 .debug_info    0x00037fc4       0x30 C:/Program Files (x86)/Microchip/MPLAB C32/bin/../lib/gcc/pic32mx/3.4.4/../../../../pic32mx/lib\libmchp_peripheral_32MX460F512L.a(int_restore_interrupts_lib.o)
 .debug_info    0x00037ff4       0x30 C:/Program Files (x86)/Microchip/MPLAB C32/bin/../lib/gcc/pic32mx/3.4.4/../../../../pic32mx/lib\libmchp_peripheral_32MX460F512L.a(int_enable_mv_int_lib.o)
 .debug_info    0x00038024       0x42 C:/Program Files (x86)/Microchip/MPLAB C32/bin/../lib/gcc/pic32mx/3.4.4/../../../../pic32mx/lib\libmchp_peripheral_32MX460F512L.a(puts_uartx_lib_legacy.o)
 .debug_info    0x00038066       0x30 C:/Program Files (x86)/Microchip/MPLAB C32/bin/../lib/gcc/pic32mx/3.4.4/../../../../pic32mx/lib\libmchp_peripheral_32MX460F512L.a(int_enable_interrupts_lib.o)

.debug_abbrev   0x00000000     0x7061
 *(.debug_abbrev)
 .debug_abbrev  0x00000000      0x199 build/default/production/_ext/1472/UARTConfig.o
 .debug_abbrev  0x00000199      0x14e build/default/production/_ext/1472/GenericTCPClient.o
 .debug_abbrev  0x000002e7      0x14e build/default/production/_ext/1472/GenericTCPServer.o
 .debug_abbrev  0x00000435      0x107 build/default/production/_ext/1472/LegacyHTTPApp.o
 .debug_abbrev  0x0000053c      0x107 build/default/production/_ext/1472/PingDemo.o
 .debug_abbrev  0x00000643      0x107 build/default/production/_ext/1472/SMTPDemo.o
 .debug_abbrev  0x0000074a      0x107 build/default/production/_ext/1472/BerkeleyUDPClientDemo.o
 .debug_abbrev  0x00000851      0x107 build/default/production/_ext/1472/BerkeleyTCPClientDemo.o
 .debug_abbrev  0x00000958      0x107 build/default/production/_ext/1472/BerkeleyTCPServerDemo.o
 .debug_abbrev  0x00000a5f      0x107 build/default/production/_ext/1295770447/UDPPerformanceTest.o
 .debug_abbrev  0x00000b66      0x1b9 build/default/production/_ext/1295770447/Announce.o
 .debug_abbrev  0x00000d1f      0x251 build/default/production/_ext/1295770447/ARP.o
 .debug_abbrev  0x00000f70      0x13c build/default/production/_ext/1295770447/Delay.o
 .debug_abbrev  0x000010ac      0x269 build/default/production/_ext/1295770447/DHCP.o
 .debug_abbrev  0x00001315      0x1e6 build/default/production/_ext/1295770447/DHCPs.o
 .debug_abbrev  0x000014fb      0x232 build/default/production/_ext/1295770447/DNS.o
 .debug_abbrev  0x0000172d      0x107 build/default/production/_ext/1295770447/DynDNS.o
 .debug_abbrev  0x00001834      0x107 build/default/production/_ext/1295770447/FTP.o
 .debug_abbrev  0x0000193b      0x1d4 build/default/production/_ext/1295770447/Hashes.o
 .debug_abbrev  0x00001b0f      0x1d0 build/default/production/_ext/1295770447/Helpers.o
 .debug_abbrev  0x00001cdf      0x260 build/default/production/_ext/1295770447/HTTP2.o
 .debug_abbrev  0x00001f3f      0x107 build/default/production/_ext/1295770447/HTTP.o
 .debug_abbrev  0x00002046      0x16e build/default/production/_ext/1295770447/ICMP.o
 .debug_abbrev  0x000021b4      0x1f6 build/default/production/_ext/1295770447/IP.o
 .debug_abbrev  0x000023aa      0x1a6 build/default/production/_ext/1295770447/LCDBlocking.o
 .debug_abbrev  0x00002550      0x22f build/default/production/_ext/1295770447/MPFS2.o
 .debug_abbrev  0x0000277f      0x107 build/default/production/_ext/1295770447/MPFS.o
 .debug_abbrev  0x00002886      0x210 build/default/production/_ext/1295770447/NBNS.o
 .debug_abbrev  0x00002a96      0x174 build/default/production/_ext/1295770447/Reboot.o
 .debug_abbrev  0x00002c0a      0x107 build/default/production/_ext/1295770447/SMTP.o
 .debug_abbrev  0x00002d11      0x107 build/default/production/_ext/1295770447/SNMP.o
 .debug_abbrev  0x00002e18      0x107 build/default/production/_ext/1295770447/SNTP.o
 .debug_abbrev  0x00002f1f      0x1dd build/default/production/_ext/1295770447/StackTsk.o
 .debug_abbrev  0x000030fc      0x29b build/default/production/_ext/1295770447/TCP.o
 .debug_abbrev  0x00003397      0x1b8 build/default/production/_ext/1295770447/TCPPerformanceTest.o
 .debug_abbrev  0x0000354f      0x15b build/default/production/_ext/1295770447/Telnet.o
 .debug_abbrev  0x000036aa      0x107 build/default/production/_ext/1295770447/TFTPc.o
 .debug_abbrev  0x000037b1      0x1de build/default/production/_ext/1295770447/Tick.o
 .debug_abbrev  0x0000398f      0x107 build/default/production/_ext/1295770447/UART2TCPBridge.o
 .debug_abbrev  0x00003a96      0x13e build/default/production/_ext/1295770447/UART.o
 .debug_abbrev  0x00003bd4      0x299 build/default/production/_ext/1295770447/UDP.o
 .debug_abbrev  0x00003e6d      0x107 build/default/production/_ext/1295770447/BerkeleyAPI.o
 .debug_abbrev  0x00003f74      0x121 build/default/production/_ext/1472/MPFSImg2.o
 .debug_abbrev  0x00004095      0x107 build/default/production/_ext/1295770447/SSL.o
 .debug_abbrev  0x0000419c      0x107 build/default/production/_ext/1295770447/ARCFOUR.o
 .debug_abbrev  0x000042a3      0x107 build/default/production/_ext/1295770447/BigInt.o
 .debug_abbrev  0x000043aa      0x107 build/default/production/_ext/1295770447/Random.o
 .debug_abbrev  0x000044b1      0x107 build/default/production/_ext/1295770447/RSA.o
 .debug_abbrev  0x000045b8      0x22b build/default/production/_ext/1295770447/AutoIP.o
 .debug_abbrev  0x000047e3      0x1f8 build/default/production/_ext/1496989791/ZGDriverRaw.o
 .debug_abbrev  0x000049db      0x107 build/default/production/_ext/1496989791/ZGAccessApp.o
 .debug_abbrev  0x00004ae2      0x136 build/default/production/_ext/1496989791/ZGAccessSys.o
 .debug_abbrev  0x00004c18      0x15c build/default/production/_ext/1496989791/ZGEint.o
 .debug_abbrev  0x00004d74      0x11e build/default/production/_ext/1496989791/ZGHWReset.o
 .debug_abbrev  0x00004e92      0x1b5 build/default/production/_ext/1496989791/ZGSpi.o
 .debug_abbrev  0x00005047      0x295 build/default/production/_ext/1496989791/ZG2100.o
 .debug_abbrev  0x000052dc      0x217 build/default/production/_ext/1496989791/ZGDriverCom.o
 .debug_abbrev  0x000054f3      0x1fc build/default/production/_ext/1496989791/ZGDriverIFace.o
 .debug_abbrev  0x000056ef      0x1fd build/default/production/_ext/1496989791/ZGDriverMac.o
 .debug_abbrev  0x000058ec      0x258 build/default/production/_ext/1496989791/ZGWifiMgrII.o
 .debug_abbrev  0x00005b44      0x107 build/default/production/_ext/1496989791/ZGAdhocMgrII.o
 .debug_abbrev  0x00005c4b      0x28c build/default/production/_ext/1496989791/ZGCommon.o
 .debug_abbrev  0x00005ed7      0x249 build/default/production/_ext/1496989791/ZGLibCfg.o
 .debug_abbrev  0x00006120      0x280 build/default/production/_ext/1496989791/ZGLibIface.o
 .debug_abbrev  0x000063a0      0x1f0 build/default/production/_ext/1496989791/ZGLinkMgrII.o
 .debug_abbrev  0x00006590      0x107 build/default/production/_ext/1496989791/ZGEasyConfig.o
 .debug_abbrev  0x00006697      0x2db build/default/production/_ext/1472/MainDemo.o
 .debug_abbrev  0x00006972      0x269 build/default/production/_ext/1472/CustomHTTPApp.o
 .debug_abbrev  0x00006bdb      0x107 build/default/production/_ext/1472/CustomSNMPApp.o
 .debug_abbrev  0x00006ce2      0x107 build/default/production/_ext/1472/CustomSSLCert.o
 .debug_abbrev  0x00006de9       0x23 C:/Program Files (x86)/Microchip/MPLAB C32/bin/../lib/gcc/pic32mx/3.4.4/../../../../pic32mx/lib\libc.a(strncmp.o)
 .debug_abbrev  0x00006e0c       0x23 C:/Program Files (x86)/Microchip/MPLAB C32/bin/../lib/gcc/pic32mx/3.4.4/../../../../pic32mx/lib\libc.a(exit.o)
 .debug_abbrev  0x00006e2f       0x23 C:/Program Files (x86)/Microchip/MPLAB C32/bin/../lib/gcc/pic32mx/3.4.4/../../../../pic32mx/lib\libc.a(rand.o)
 .debug_abbrev  0x00006e52       0x23 C:/Program Files (x86)/Microchip/MPLAB C32/bin/../lib/gcc/pic32mx/3.4.4/../../../../pic32mx/lib\libc.a(atol.o)
 .debug_abbrev  0x00006e75       0x23 C:/Program Files (x86)/Microchip/MPLAB C32/bin/../lib/gcc/pic32mx/3.4.4/../../../../pic32mx/lib\libc.a(atoi.o)
 .debug_abbrev  0x00006e98       0x23 C:/Program Files (x86)/Microchip/MPLAB C32/bin/../lib/gcc/pic32mx/3.4.4/../../../../pic32mx/lib\libc.a(strtol.o)
 .debug_abbrev  0x00006ebb       0x23 C:/Program Files (x86)/Microchip/MPLAB C32/bin/../lib/gcc/pic32mx/3.4.4/../../../../pic32mx/lib\libc.a(stubs.o)
 .debug_abbrev  0x00006ede       0x23 C:/Program Files (x86)/Microchip/MPLAB C32/bin/../lib/gcc/pic32mx/3.4.4/../../../../pic32mx/lib\libc.a(default-bootstrap-exception-handler.o)
 .debug_abbrev  0x00006f01       0x23 C:/Program Files (x86)/Microchip/MPLAB C32/bin/../lib/gcc/pic32mx/3.4.4/../../../../pic32mx/lib\libc.a(default-on-reset.o)
 .debug_abbrev  0x00006f24       0x23 C:/Program Files (x86)/Microchip/MPLAB C32/bin/../lib/gcc/pic32mx/3.4.4/../../../../pic32mx/lib\libc.a(default-on-bootstrap.o)
 .debug_abbrev  0x00006f47       0x23 C:/Program Files (x86)/Microchip/MPLAB C32/bin/../lib/gcc/pic32mx/3.4.4/../../../../pic32mx/lib\libc.a(_exit.o)
 .debug_abbrev  0x00006f6a        0x1 C:/Program Files (x86)/Microchip/MPLAB C32/bin/../lib/gcc/pic32mx/3.4.4/../../../../pic32mx/lib\libc.a(ctype.o)
 .debug_abbrev  0x00006f6b        0x1 C:/Program Files (x86)/Microchip/MPLAB C32/bin/../lib/gcc/pic32mx/3.4.4/../../../../pic32mx/lib\libc.a(errno.o)
 .debug_abbrev  0x00006f6c       0x23 C:/Program Files (x86)/Microchip/MPLAB C32/bin/../lib/gcc/pic32mx/3.4.4/../../../../pic32mx/lib\libmchp_peripheral_32MX460F512L.a(soft_reset_lib.o)
 .debug_abbrev  0x00006f8f       0x23 C:/Program Files (x86)/Microchip/MPLAB C32/bin/../lib/gcc/pic32mx/3.4.4/../../../../pic32mx/lib\libmchp_peripheral_32MX460F512L.a(pcache.o)
 .debug_abbrev  0x00006fb2       0x23 C:/Program Files (x86)/Microchip/MPLAB C32/bin/../lib/gcc/pic32mx/3.4.4/../../../../pic32mx/lib\libmchp_peripheral_32MX460F512L.a(int_disable_interrupts_lib.o)
 .debug_abbrev  0x00006fd5       0x23 C:/Program Files (x86)/Microchip/MPLAB C32/bin/../lib/gcc/pic32mx/3.4.4/../../../../pic32mx/lib\libmchp_peripheral_32MX460F512L.a(int_restore_interrupts_lib.o)
 .debug_abbrev  0x00006ff8       0x23 C:/Program Files (x86)/Microchip/MPLAB C32/bin/../lib/gcc/pic32mx/3.4.4/../../../../pic32mx/lib\libmchp_peripheral_32MX460F512L.a(int_enable_mv_int_lib.o)
 .debug_abbrev  0x0000701b       0x23 C:/Program Files (x86)/Microchip/MPLAB C32/bin/../lib/gcc/pic32mx/3.4.4/../../../../pic32mx/lib\libmchp_peripheral_32MX460F512L.a(puts_uartx_lib_legacy.o)
 .debug_abbrev  0x0000703e       0x23 C:/Program Files (x86)/Microchip/MPLAB C32/bin/../lib/gcc/pic32mx/3.4.4/../../../../pic32mx/lib\libmchp_peripheral_32MX460F512L.a(int_enable_interrupts_lib.o)

.debug_line     0x00000000     0xa399
 *(.debug_line)
 .debug_line    0x00000000      0x1e8 build/default/production/_ext/1472/UARTConfig.o
 .debug_line    0x000001e8      0x1d7 build/default/production/_ext/1472/GenericTCPClient.o
 .debug_line    0x000003bf      0x1ca build/default/production/_ext/1472/GenericTCPServer.o
 .debug_line    0x00000589      0x13f build/default/production/_ext/1472/LegacyHTTPApp.o
 .debug_line    0x000006c8      0x13f build/default/production/_ext/1472/PingDemo.o
 .debug_line    0x00000807      0x13f build/default/production/_ext/1472/SMTPDemo.o
 .debug_line    0x00000946      0x13f build/default/production/_ext/1472/BerkeleyUDPClientDemo.o
 .debug_line    0x00000a85      0x13f build/default/production/_ext/1472/BerkeleyTCPClientDemo.o
 .debug_line    0x00000bc4      0x13f build/default/production/_ext/1472/BerkeleyTCPServerDemo.o
 .debug_line    0x00000d03      0x13f build/default/production/_ext/1295770447/UDPPerformanceTest.o
 .debug_line    0x00000e42      0x204 build/default/production/_ext/1295770447/Announce.o
 .debug_line    0x00001046      0x239 build/default/production/_ext/1295770447/ARP.o
 .debug_line    0x0000127f      0x188 build/default/production/_ext/1295770447/Delay.o
 .debug_line    0x00001407      0x3aa build/default/production/_ext/1295770447/DHCP.o
 .debug_line    0x000017b1      0x2a5 build/default/production/_ext/1295770447/DHCPs.o
 .debug_line    0x00001a56      0x2e6 build/default/production/_ext/1295770447/DNS.o
 .debug_line    0x00001d3c      0x13f build/default/production/_ext/1295770447/DynDNS.o
 .debug_line    0x00001e7b      0x13f build/default/production/_ext/1295770447/FTP.o
 .debug_line    0x00001fba      0x243 build/default/production/_ext/1295770447/Hashes.o
 .debug_line    0x000021fd      0x3a1 build/default/production/_ext/1295770447/Helpers.o
 .debug_line    0x0000259e      0x604 build/default/production/_ext/1295770447/HTTP2.o
 .debug_line    0x00002ba2      0x13f build/default/production/_ext/1295770447/HTTP.o
 .debug_line    0x00002ce1      0x1c1 build/default/production/_ext/1295770447/ICMP.o
 .debug_line    0x00002ea2      0x204 build/default/production/_ext/1295770447/IP.o
 .debug_line    0x000030a6      0x203 build/default/production/_ext/1295770447/LCDBlocking.o
 .debug_line    0x000032a9      0x372 build/default/production/_ext/1295770447/MPFS2.o
 .debug_line    0x0000361b      0x13f build/default/production/_ext/1295770447/MPFS.o
 .debug_line    0x0000375a      0x23f build/default/production/_ext/1295770447/NBNS.o
 .debug_line    0x00003999      0x1e1 build/default/production/_ext/1295770447/Reboot.o
 .debug_line    0x00003b7a      0x13f build/default/production/_ext/1295770447/SMTP.o
 .debug_line    0x00003cb9      0x13f build/default/production/_ext/1295770447/SNMP.o
 .debug_line    0x00003df8      0x13f build/default/production/_ext/1295770447/SNTP.o
 .debug_line    0x00003f37      0x211 build/default/production/_ext/1295770447/StackTsk.o
 .debug_line    0x00004148      0xa9f build/default/production/_ext/1295770447/TCP.o
 .debug_line    0x00004be7      0x22d build/default/production/_ext/1295770447/TCPPerformanceTest.o
 .debug_line    0x00004e14      0x277 build/default/production/_ext/1295770447/Telnet.o
 .debug_line    0x0000508b      0x13f build/default/production/_ext/1295770447/TFTPc.o
 .debug_line    0x000051ca      0x1c9 build/default/production/_ext/1295770447/Tick.o
 .debug_line    0x00005393      0x13f build/default/production/_ext/1295770447/UART2TCPBridge.o
 .debug_line    0x000054d2      0x183 build/default/production/_ext/1295770447/UART.o
 .debug_line    0x00005655      0x2ef build/default/production/_ext/1295770447/UDP.o
 .debug_line    0x00005944      0x13f build/default/production/_ext/1295770447/BerkeleyAPI.o
 .debug_line    0x00005a83      0x150 build/default/production/_ext/1472/MPFSImg2.o
 .debug_line    0x00005bd3      0x13f build/default/production/_ext/1295770447/SSL.o
 .debug_line    0x00005d12      0x13f build/default/production/_ext/1295770447/ARCFOUR.o
 .debug_line    0x00005e51      0x13f build/default/production/_ext/1295770447/BigInt.o
 .debug_line    0x00005f90      0x13f build/default/production/_ext/1295770447/Random.o
 .debug_line    0x000060cf      0x13f build/default/production/_ext/1295770447/RSA.o
 .debug_line    0x0000620e      0x2d5 build/default/production/_ext/1295770447/AutoIP.o
 .debug_line    0x000064e3      0x29d build/default/production/_ext/1496989791/ZGDriverRaw.o
 .debug_line    0x00006780      0x13f build/default/production/_ext/1496989791/ZGAccessApp.o
 .debug_line    0x000068bf      0x1be build/default/production/_ext/1496989791/ZGAccessSys.o
 .debug_line    0x00006a7d      0x1a8 build/default/production/_ext/1496989791/ZGEint.o
 .debug_line    0x00006c25      0x182 build/default/production/_ext/1496989791/ZGHWReset.o
 .debug_line    0x00006da7      0x25d build/default/production/_ext/1496989791/ZGSpi.o
 .debug_line    0x00007004      0x48f build/default/production/_ext/1496989791/ZG2100.o
 .debug_line    0x00007493      0x35f build/default/production/_ext/1496989791/ZGDriverCom.o
 .debug_line    0x000077f2      0x27c build/default/production/_ext/1496989791/ZGDriverIFace.o
 .debug_line    0x00007a6e      0x239 build/default/production/_ext/1496989791/ZGDriverMac.o
 .debug_line    0x00007ca7      0x351 build/default/production/_ext/1496989791/ZGWifiMgrII.o
 .debug_line    0x00007ff8      0x13f build/default/production/_ext/1496989791/ZGAdhocMgrII.o
 .debug_line    0x00008137      0x373 build/default/production/_ext/1496989791/ZGCommon.o
 .debug_line    0x000084aa      0x2c5 build/default/production/_ext/1496989791/ZGLibCfg.o
 .debug_line    0x0000876f      0x3a2 build/default/production/_ext/1496989791/ZGLibIface.o
 .debug_line    0x00008b11      0x273 build/default/production/_ext/1496989791/ZGLinkMgrII.o
 .debug_line    0x00008d84      0x13f build/default/production/_ext/1496989791/ZGEasyConfig.o
 .debug_line    0x00008ec3      0x32e build/default/production/_ext/1472/MainDemo.o
 .debug_line    0x000091f1      0x49f build/default/production/_ext/1472/CustomHTTPApp.o
 .debug_line    0x00009690      0x13f build/default/production/_ext/1472/CustomSNMPApp.o
 .debug_line    0x000097cf      0x13f build/default/production/_ext/1472/CustomSSLCert.o
 .debug_line    0x0000990e       0x88 C:/Program Files (x86)/Microchip/MPLAB C32/bin/../lib/gcc/pic32mx/3.4.4/../../../../pic32mx/lib\libc.a(strncmp.o)
 .debug_line    0x00009996       0x85 C:/Program Files (x86)/Microchip/MPLAB C32/bin/../lib/gcc/pic32mx/3.4.4/../../../../pic32mx/lib\libc.a(exit.o)
 .debug_line    0x00009a1b       0x85 C:/Program Files (x86)/Microchip/MPLAB C32/bin/../lib/gcc/pic32mx/3.4.4/../../../../pic32mx/lib\libc.a(rand.o)
 .debug_line    0x00009aa0       0x85 C:/Program Files (x86)/Microchip/MPLAB C32/bin/../lib/gcc/pic32mx/3.4.4/../../../../pic32mx/lib\libc.a(atol.o)
 .debug_line    0x00009b25       0x85 C:/Program Files (x86)/Microchip/MPLAB C32/bin/../lib/gcc/pic32mx/3.4.4/../../../../pic32mx/lib\libc.a(atoi.o)
 .debug_line    0x00009baa       0x87 C:/Program Files (x86)/Microchip/MPLAB C32/bin/../lib/gcc/pic32mx/3.4.4/../../../../pic32mx/lib\libc.a(strtol.o)
 .debug_line    0x00009c31       0x88 C:/Program Files (x86)/Microchip/MPLAB C32/bin/../lib/gcc/pic32mx/3.4.4/../../../../pic32mx/lib\libc.a(stubs.o)
 .debug_line    0x00009cb9       0xa6 C:/Program Files (x86)/Microchip/MPLAB C32/bin/../lib/gcc/pic32mx/3.4.4/../../../../pic32mx/lib\libc.a(default-bootstrap-exception-handler.o)
 .debug_line    0x00009d5f       0x93 C:/Program Files (x86)/Microchip/MPLAB C32/bin/../lib/gcc/pic32mx/3.4.4/../../../../pic32mx/lib\libc.a(default-on-reset.o)
 .debug_line    0x00009df2       0x97 C:/Program Files (x86)/Microchip/MPLAB C32/bin/../lib/gcc/pic32mx/3.4.4/../../../../pic32mx/lib\libc.a(default-on-bootstrap.o)
 .debug_line    0x00009e89       0x88 C:/Program Files (x86)/Microchip/MPLAB C32/bin/../lib/gcc/pic32mx/3.4.4/../../../../pic32mx/lib\libc.a(_exit.o)
 .debug_line    0x00009f11        0x0 C:/Program Files (x86)/Microchip/MPLAB C32/bin/../lib/gcc/pic32mx/3.4.4/../../../../pic32mx/lib\libc.a(ctype.o)
 .debug_line    0x00009f11        0x0 C:/Program Files (x86)/Microchip/MPLAB C32/bin/../lib/gcc/pic32mx/3.4.4/../../../../pic32mx/lib\libc.a(errno.o)
 .debug_line    0x00009f11       0xa1 C:/Program Files (x86)/Microchip/MPLAB C32/bin/../lib/gcc/pic32mx/3.4.4/../../../../pic32mx/lib\libmchp_peripheral_32MX460F512L.a(soft_reset_lib.o)
 .debug_line    0x00009fb2       0x9a C:/Program Files (x86)/Microchip/MPLAB C32/bin/../lib/gcc/pic32mx/3.4.4/../../../../pic32mx/lib\libmchp_peripheral_32MX460F512L.a(pcache.o)
 .debug_line    0x0000a04c       0xab C:/Program Files (x86)/Microchip/MPLAB C32/bin/../lib/gcc/pic32mx/3.4.4/../../../../pic32mx/lib\libmchp_peripheral_32MX460F512L.a(int_disable_interrupts_lib.o)
 .debug_line    0x0000a0f7       0xab C:/Program Files (x86)/Microchip/MPLAB C32/bin/../lib/gcc/pic32mx/3.4.4/../../../../pic32mx/lib\libmchp_peripheral_32MX460F512L.a(int_restore_interrupts_lib.o)
 .debug_line    0x0000a1a2       0xa6 C:/Program Files (x86)/Microchip/MPLAB C32/bin/../lib/gcc/pic32mx/3.4.4/../../../../pic32mx/lib\libmchp_peripheral_32MX460F512L.a(int_enable_mv_int_lib.o)
 .debug_line    0x0000a248       0xa7 C:/Program Files (x86)/Microchip/MPLAB C32/bin/../lib/gcc/pic32mx/3.4.4/../../../../pic32mx/lib\libmchp_peripheral_32MX460F512L.a(puts_uartx_lib_legacy.o)
 .debug_line    0x0000a2ef       0xaa C:/Program Files (x86)/Microchip/MPLAB C32/bin/../lib/gcc/pic32mx/3.4.4/../../../../pic32mx/lib\libmchp_peripheral_32MX460F512L.a(int_enable_interrupts_lib.o)

.debug_frame    0x00000000     0x3a48
 *(.debug_frame)
 .debug_frame   0x00000000       0x30 build/default/production/_ext/1472/UARTConfig.o
 .debug_frame   0x00000030       0x30 build/default/production/_ext/1472/GenericTCPClient.o
 .debug_frame   0x00000060       0x30 build/default/production/_ext/1472/GenericTCPServer.o
 .debug_frame   0x00000090       0x50 build/default/production/_ext/1295770447/Announce.o
 .debug_frame   0x000000e0       0xc8 build/default/production/_ext/1295770447/ARP.o
 .debug_frame   0x000001a8       0x4c build/default/production/_ext/1295770447/Delay.o
 .debug_frame   0x000001f4      0x13c build/default/production/_ext/1295770447/DHCP.o
 .debug_frame   0x00000330       0x70 build/default/production/_ext/1295770447/DHCPs.o
 .debug_frame   0x000003a0       0xcc build/default/production/_ext/1295770447/DNS.o
 .debug_frame   0x0000046c       0xa8 build/default/production/_ext/1295770447/Hashes.o
 .debug_frame   0x00000514      0x1dc build/default/production/_ext/1295770447/Helpers.o
 .debug_frame   0x000006f0      0x238 build/default/production/_ext/1295770447/HTTP2.o
 .debug_frame   0x00000928       0x30 build/default/production/_ext/1295770447/ICMP.o
 .debug_frame   0x00000958       0x90 build/default/production/_ext/1295770447/IP.o
 .debug_frame   0x000009e8       0x8c build/default/production/_ext/1295770447/LCDBlocking.o
 .debug_frame   0x00000a74      0x280 build/default/production/_ext/1295770447/MPFS2.o
 .debug_frame   0x00000cf4       0x70 build/default/production/_ext/1295770447/NBNS.o
 .debug_frame   0x00000d64       0x30 build/default/production/_ext/1295770447/Reboot.o
 .debug_frame   0x00000d94       0x70 build/default/production/_ext/1295770447/StackTsk.o
 .debug_frame   0x00000e04      0x420 build/default/production/_ext/1295770447/TCP.o
 .debug_frame   0x00001224       0x70 build/default/production/_ext/1295770447/TCPPerformanceTest.o
 .debug_frame   0x00001294       0x34 build/default/production/_ext/1295770447/Telnet.o
 .debug_frame   0x000012c8       0xe0 build/default/production/_ext/1295770447/Tick.o
 .debug_frame   0x000013a8       0x2c build/default/production/_ext/1295770447/UART.o
 .debug_frame   0x000013d4      0x228 build/default/production/_ext/1295770447/UDP.o
 .debug_frame   0x000015fc      0x134 build/default/production/_ext/1295770447/AutoIP.o
 .debug_frame   0x00001730      0x130 build/default/production/_ext/1496989791/ZGDriverRaw.o
 .debug_frame   0x00001860       0x30 build/default/production/_ext/1496989791/ZGAccessSys.o
 .debug_frame   0x00001890       0xdc build/default/production/_ext/1496989791/ZGEint.o
 .debug_frame   0x0000196c       0x2c build/default/production/_ext/1496989791/ZGHWReset.o
 .debug_frame   0x00001998      0x1b8 build/default/production/_ext/1496989791/ZGSpi.o
 .debug_frame   0x00001b50      0x40c build/default/production/_ext/1496989791/ZG2100.o
 .debug_frame   0x00001f5c      0x2a4 build/default/production/_ext/1496989791/ZGDriverCom.o
 .debug_frame   0x00002200      0x22c build/default/production/_ext/1496989791/ZGDriverIFace.o
 .debug_frame   0x0000242c      0x100 build/default/production/_ext/1496989791/ZGDriverMac.o
 .debug_frame   0x0000252c      0x1c8 build/default/production/_ext/1496989791/ZGWifiMgrII.o
 .debug_frame   0x000026f4      0x254 build/default/production/_ext/1496989791/ZGCommon.o
 .debug_frame   0x00002948      0x224 build/default/production/_ext/1496989791/ZGLibCfg.o
 .debug_frame   0x00002b6c      0x42c build/default/production/_ext/1496989791/ZGLibIface.o
 .debug_frame   0x00002f98       0xe0 build/default/production/_ext/1496989791/ZGLinkMgrII.o
 .debug_frame   0x00003078       0xcc build/default/production/_ext/1472/MainDemo.o
 .debug_frame   0x00003144      0x500 build/default/production/_ext/1472/CustomHTTPApp.o
 .debug_frame   0x00003644       0x20 C:/Program Files (x86)/Microchip/MPLAB C32/bin/../lib/gcc/pic32mx/3.4.4/../../../../pic32mx/lib\libc.a(strncmp.o)
 .debug_frame   0x00003664       0x28 C:/Program Files (x86)/Microchip/MPLAB C32/bin/../lib/gcc/pic32mx/3.4.4/../../../../pic32mx/lib\libc.a(exit.o)
 .debug_frame   0x0000368c       0x54 C:/Program Files (x86)/Microchip/MPLAB C32/bin/../lib/gcc/pic32mx/3.4.4/../../../../pic32mx/lib\libc.a(rand.o)
 .debug_frame   0x000036e0       0x20 C:/Program Files (x86)/Microchip/MPLAB C32/bin/../lib/gcc/pic32mx/3.4.4/../../../../pic32mx/lib\libc.a(atol.o)
 .debug_frame   0x00003700       0x20 C:/Program Files (x86)/Microchip/MPLAB C32/bin/../lib/gcc/pic32mx/3.4.4/../../../../pic32mx/lib\libc.a(atoi.o)
 .debug_frame   0x00003720       0x20 C:/Program Files (x86)/Microchip/MPLAB C32/bin/../lib/gcc/pic32mx/3.4.4/../../../../pic32mx/lib\libc.a(strtol.o)
 .debug_frame   0x00003740      0x178 C:/Program Files (x86)/Microchip/MPLAB C32/bin/../lib/gcc/pic32mx/3.4.4/../../../../pic32mx/lib\libc.a(stubs.o)
 .debug_frame   0x000038b8       0x20 C:/Program Files (x86)/Microchip/MPLAB C32/bin/../lib/gcc/pic32mx/3.4.4/../../../../pic32mx/lib\libc.a(default-bootstrap-exception-handler.o)
 .debug_frame   0x000038d8       0x20 C:/Program Files (x86)/Microchip/MPLAB C32/bin/../lib/gcc/pic32mx/3.4.4/../../../../pic32mx/lib\libc.a(default-on-reset.o)
 .debug_frame   0x000038f8       0x20 C:/Program Files (x86)/Microchip/MPLAB C32/bin/../lib/gcc/pic32mx/3.4.4/../../../../pic32mx/lib\libc.a(default-on-bootstrap.o)
 .debug_frame   0x00003918       0x20 C:/Program Files (x86)/Microchip/MPLAB C32/bin/../lib/gcc/pic32mx/3.4.4/../../../../pic32mx/lib\libc.a(_exit.o)
 .debug_frame   0x00003938       0x28 C:/Program Files (x86)/Microchip/MPLAB C32/bin/../lib/gcc/pic32mx/3.4.4/../../../../pic32mx/lib\libmchp_peripheral_32MX460F512L.a(soft_reset_lib.o)
 .debug_frame   0x00003960       0x30 C:/Program Files (x86)/Microchip/MPLAB C32/bin/../lib/gcc/pic32mx/3.4.4/../../../../pic32mx/lib\libmchp_peripheral_32MX460F512L.a(pcache.o)
 .debug_frame   0x00003990       0x20 C:/Program Files (x86)/Microchip/MPLAB C32/bin/../lib/gcc/pic32mx/3.4.4/../../../../pic32mx/lib\libmchp_peripheral_32MX460F512L.a(int_disable_interrupts_lib.o)
 .debug_frame   0x000039b0       0x20 C:/Program Files (x86)/Microchip/MPLAB C32/bin/../lib/gcc/pic32mx/3.4.4/../../../../pic32mx/lib\libmchp_peripheral_32MX460F512L.a(int_restore_interrupts_lib.o)
 .debug_frame   0x000039d0       0x28 C:/Program Files (x86)/Microchip/MPLAB C32/bin/../lib/gcc/pic32mx/3.4.4/../../../../pic32mx/lib\libmchp_peripheral_32MX460F512L.a(int_enable_mv_int_lib.o)
 .debug_frame   0x000039f8       0x30 C:/Program Files (x86)/Microchip/MPLAB C32/bin/../lib/gcc/pic32mx/3.4.4/../../../../pic32mx/lib\libmchp_peripheral_32MX460F512L.a(puts_uartx_lib_legacy.o)
 .debug_frame   0x00003a28       0x20 C:/Program Files (x86)/Microchip/MPLAB C32/bin/../lib/gcc/pic32mx/3.4.4/../../../../pic32mx/lib\libmchp_peripheral_32MX460F512L.a(int_enable_interrupts_lib.o)

.debug_str      0x00000000     0x147c
 *(.debug_str)
 .debug_str     0x00000000       0x12 build/default/production/_ext/1472/UARTConfig.o
 .debug_str     0x00000012       0x12 build/default/production/_ext/1472/GenericTCPClient.o
 .debug_str     0x00000024       0x12 build/default/production/_ext/1472/GenericTCPServer.o
 .debug_str     0x00000036       0x12 build/default/production/_ext/1472/LegacyHTTPApp.o
 .debug_str     0x00000048       0x12 build/default/production/_ext/1472/PingDemo.o
 .debug_str     0x0000005a       0x12 build/default/production/_ext/1472/SMTPDemo.o
 .debug_str     0x0000006c       0x12 build/default/production/_ext/1472/BerkeleyUDPClientDemo.o
 .debug_str     0x0000007e       0x12 build/default/production/_ext/1472/BerkeleyTCPClientDemo.o
 .debug_str     0x00000090       0x12 build/default/production/_ext/1472/BerkeleyTCPServerDemo.o
 .debug_str     0x000000a2       0x12 build/default/production/_ext/1295770447/UDPPerformanceTest.o
 .debug_str     0x000000b4       0x26 build/default/production/_ext/1295770447/Announce.o
 .debug_str     0x000000da       0x20 build/default/production/_ext/1295770447/ARP.o
 .debug_str     0x000000fa       0x12 build/default/production/_ext/1295770447/Delay.o
 .debug_str     0x0000010c       0x1d build/default/production/_ext/1295770447/DHCP.o
 .debug_str     0x00000129       0x12 build/default/production/_ext/1295770447/DHCPs.o
 .debug_str     0x0000013b       0x12 build/default/production/_ext/1295770447/DNS.o
 .debug_str     0x0000014d       0x12 build/default/production/_ext/1295770447/DynDNS.o
 .debug_str     0x0000015f       0x12 build/default/production/_ext/1295770447/FTP.o
 .debug_str     0x00000171       0x19 build/default/production/_ext/1295770447/Hashes.o
 .debug_str     0x0000018a       0x12 build/default/production/_ext/1295770447/Helpers.o
 .debug_str     0x0000019c       0x2a build/default/production/_ext/1295770447/HTTP2.o
 .debug_str     0x000001c6       0x12 build/default/production/_ext/1295770447/HTTP.o
 .debug_str     0x000001d8       0x12 build/default/production/_ext/1295770447/ICMP.o
 .debug_str     0x000001ea       0x1b build/default/production/_ext/1295770447/IP.o
 .debug_str     0x00000205       0x12 build/default/production/_ext/1295770447/LCDBlocking.o
 .debug_str     0x00000217       0x2b build/default/production/_ext/1295770447/MPFS2.o
 .debug_str     0x00000242       0x12 build/default/production/_ext/1295770447/MPFS.o
 .debug_str     0x00000254       0x1d build/default/production/_ext/1295770447/NBNS.o
 .debug_str     0x00000271       0x12 build/default/production/_ext/1295770447/Reboot.o
 .debug_str     0x00000283       0x12 build/default/production/_ext/1295770447/SMTP.o
 .debug_str     0x00000295       0x12 build/default/production/_ext/1295770447/SNMP.o
 .debug_str     0x000002a7       0x12 build/default/production/_ext/1295770447/SNTP.o
 .debug_str     0x000002b9       0x12 build/default/production/_ext/1295770447/StackTsk.o
 .debug_str     0x000002cb       0xbe build/default/production/_ext/1295770447/TCP.o
 .debug_str     0x00000389       0x27 build/default/production/_ext/1295770447/TCPPerformanceTest.o
 .debug_str     0x000003b0       0x12 build/default/production/_ext/1295770447/Telnet.o
 .debug_str     0x000003c2       0x12 build/default/production/_ext/1295770447/TFTPc.o
 .debug_str     0x000003d4       0x12 build/default/production/_ext/1295770447/Tick.o
 .debug_str     0x000003e6       0x12 build/default/production/_ext/1295770447/UART2TCPBridge.o
 .debug_str     0x000003f8       0x12 build/default/production/_ext/1295770447/UART.o
 .debug_str     0x0000040a       0x48 build/default/production/_ext/1295770447/UDP.o
 .debug_str     0x00000452       0x12 build/default/production/_ext/1295770447/BerkeleyAPI.o
 .debug_str     0x00000464       0x12 build/default/production/_ext/1472/MPFSImg2.o
 .debug_str     0x00000476       0x12 build/default/production/_ext/1295770447/SSL.o
 .debug_str     0x00000488       0x12 build/default/production/_ext/1295770447/ARCFOUR.o
 .debug_str     0x0000049a       0x12 build/default/production/_ext/1295770447/BigInt.o
 .debug_str     0x000004ac       0x12 build/default/production/_ext/1295770447/Random.o
 .debug_str     0x000004be       0x12 build/default/production/_ext/1295770447/RSA.o
 .debug_str     0x000004d0       0x1d build/default/production/_ext/1295770447/AutoIP.o
 .debug_str     0x000004ed       0x37 build/default/production/_ext/1496989791/ZGDriverRaw.o
 .debug_str     0x00000524       0x12 build/default/production/_ext/1496989791/ZGAccessApp.o
 .debug_str     0x00000536       0x12 build/default/production/_ext/1496989791/ZGAccessSys.o
 .debug_str     0x00000548       0x12 build/default/production/_ext/1496989791/ZGEint.o
 .debug_str     0x0000055a       0x12 build/default/production/_ext/1496989791/ZGHWReset.o
 .debug_str     0x0000056c       0x2a build/default/production/_ext/1496989791/ZGSpi.o
 .debug_str     0x00000596       0x23 build/default/production/_ext/1496989791/ZG2100.o
 .debug_str     0x000005b9       0x4a build/default/production/_ext/1496989791/ZGDriverCom.o
 .debug_str     0x00000603       0x1e build/default/production/_ext/1496989791/ZGDriverIFace.o
 .debug_str     0x00000621       0x24 build/default/production/_ext/1496989791/ZGDriverMac.o
 .debug_str     0x00000645       0x85 build/default/production/_ext/1496989791/ZGWifiMgrII.o
 .debug_str     0x000006ca       0x12 build/default/production/_ext/1496989791/ZGAdhocMgrII.o
 .debug_str     0x000006dc       0x6e build/default/production/_ext/1496989791/ZGCommon.o
 .debug_str     0x0000074a       0x4b build/default/production/_ext/1496989791/ZGLibCfg.o
 .debug_str     0x00000795       0x51 build/default/production/_ext/1496989791/ZGLibIface.o
 .debug_str     0x000007e6       0x12 build/default/production/_ext/1496989791/ZGLinkMgrII.o
 .debug_str     0x000007f8       0x12 build/default/production/_ext/1496989791/ZGEasyConfig.o
 .debug_str     0x0000080a       0x30 build/default/production/_ext/1472/MainDemo.o
 .debug_str     0x0000083a       0x1b build/default/production/_ext/1472/CustomHTTPApp.o
 .debug_str     0x00000855       0x12 build/default/production/_ext/1472/CustomSNMPApp.o
 .debug_str     0x00000867       0x12 build/default/production/_ext/1472/CustomSSLCert.o
 .debug_str     0x00000879       0xba C:/Program Files (x86)/Microchip/MPLAB C32/bin/../lib/gcc/pic32mx/3.4.4/../../../../pic32mx/lib\libc.a(strncmp.o)
 .debug_str     0x00000933       0x65 C:/Program Files (x86)/Microchip/MPLAB C32/bin/../lib/gcc/pic32mx/3.4.4/../../../../pic32mx/lib\libc.a(exit.o)
                                 0xb4 (size before relaxing)
 .debug_str     0x00000998       0x72 C:/Program Files (x86)/Microchip/MPLAB C32/bin/../lib/gcc/pic32mx/3.4.4/../../../../pic32mx/lib\libc.a(rand.o)
                                 0xc1 (size before relaxing)
 .debug_str     0x00000a0a       0x6a C:/Program Files (x86)/Microchip/MPLAB C32/bin/../lib/gcc/pic32mx/3.4.4/../../../../pic32mx/lib\libc.a(atol.o)
                                 0xb4 (size before relaxing)
 .debug_str     0x00000a74       0x6a C:/Program Files (x86)/Microchip/MPLAB C32/bin/../lib/gcc/pic32mx/3.4.4/../../../../pic32mx/lib\libc.a(atoi.o)
                                 0xb4 (size before relaxing)
 .debug_str     0x00000ade       0x6e C:/Program Files (x86)/Microchip/MPLAB C32/bin/../lib/gcc/pic32mx/3.4.4/../../../../pic32mx/lib\libc.a(strtol.o)
                                 0xb8 (size before relaxing)
 .debug_str     0x00000b4c      0x2d8 C:/Program Files (x86)/Microchip/MPLAB C32/bin/../lib/gcc/pic32mx/3.4.4/../../../../pic32mx/lib\libc.a(stubs.o)
                                0x322 (size before relaxing)
 .debug_str     0x00000e24       0xa3 C:/Program Files (x86)/Microchip/MPLAB C32/bin/../lib/gcc/pic32mx/3.4.4/../../../../pic32mx/lib\libc.a(default-bootstrap-exception-handler.o)
                                 0xed (size before relaxing)
 .debug_str     0x00000ec7       0x7d C:/Program Files (x86)/Microchip/MPLAB C32/bin/../lib/gcc/pic32mx/3.4.4/../../../../pic32mx/lib\libc.a(default-on-reset.o)
                                 0xc7 (size before relaxing)
 .debug_str     0x00000f44       0x85 C:/Program Files (x86)/Microchip/MPLAB C32/bin/../lib/gcc/pic32mx/3.4.4/../../../../pic32mx/lib\libc.a(default-on-bootstrap.o)
                                 0xcf (size before relaxing)
 .debug_str     0x00000fc9       0x6e C:/Program Files (x86)/Microchip/MPLAB C32/bin/../lib/gcc/pic32mx/3.4.4/../../../../pic32mx/lib\libc.a(_exit.o)
                                 0xb8 (size before relaxing)
 .debug_str     0x00001037       0x8b C:/Program Files (x86)/Microchip/MPLAB C32/bin/../lib/gcc/pic32mx/3.4.4/../../../../pic32mx/lib\libmchp_peripheral_32MX460F512L.a(soft_reset_lib.o)
                                 0xd5 (size before relaxing)
 .debug_str     0x000010c2       0x9b C:/Program Files (x86)/Microchip/MPLAB C32/bin/../lib/gcc/pic32mx/3.4.4/../../../../pic32mx/lib\libmchp_peripheral_32MX460F512L.a(pcache.o)
                                 0xe5 (size before relaxing)
 .debug_str     0x0000115d       0xa0 C:/Program Files (x86)/Microchip/MPLAB C32/bin/../lib/gcc/pic32mx/3.4.4/../../../../pic32mx/lib\libmchp_peripheral_32MX460F512L.a(int_disable_interrupts_lib.o)
                                 0xea (size before relaxing)
 .debug_str     0x000011fd       0xa0 C:/Program Files (x86)/Microchip/MPLAB C32/bin/../lib/gcc/pic32mx/3.4.4/../../../../pic32mx/lib\libmchp_peripheral_32MX460F512L.a(int_restore_interrupts_lib.o)
                                 0xea (size before relaxing)
 .debug_str     0x0000129d       0xa6 C:/Program Files (x86)/Microchip/MPLAB C32/bin/../lib/gcc/pic32mx/3.4.4/../../../../pic32mx/lib\libmchp_peripheral_32MX460F512L.a(int_enable_mv_int_lib.o)
                                 0xf0 (size before relaxing)
 .debug_str     0x00001343       0x9b C:/Program Files (x86)/Microchip/MPLAB C32/bin/../lib/gcc/pic32mx/3.4.4/../../../../pic32mx/lib\libmchp_peripheral_32MX460F512L.a(puts_uartx_lib_legacy.o)
                                 0xe5 (size before relaxing)
 .debug_str     0x000013de       0x9e C:/Program Files (x86)/Microchip/MPLAB C32/bin/../lib/gcc/pic32mx/3.4.4/../../../../pic32mx/lib\libmchp_peripheral_32MX460F512L.a(int_enable_interrupts_lib.o)
                                 0xe8 (size before relaxing)

.debug_loc
 *(.debug_loc)

.debug_macinfo
 *(.debug_macinfo)

.debug_weaknames
 *(.debug_weaknames)

.debug_funcnames
 *(.debug_funcnames)

.debug_typenames
 *(.debug_typenames)

.debug_varnames
 *(.debug_varnames)
OUTPUT(dist/default/production/TCPIP_WiFi_Demo_App-C32.X.production.elf elf32-tradlittlemips)
